     1 00000000                                 [FORMAT "WCOFF"]
     2 00000000                                 [INSTRSET "i486p"]
     3 00000000                                 [OPTIMIZE 1]
     4 00000000                                 [OPTION 1]
     5 00000000                                 [BITS 32]
     6 00000000                                 	EXTERN	_task_now
     7 00000000                                 	EXTERN	_timer_alloc
     8 00000000                                 	EXTERN	_timer_init
     9 00000000                                 	EXTERN	_timer_settime
    10 00000000                                 	EXTERN	_u_fat
    11 00000000                                 	EXTERN	_io_cli
    12 00000000                                 	EXTERN	_fifo32_status
    13 00000000                                 	EXTERN	_fifo32_get
    14 00000000                                 	EXTERN	_io_sti
    15 00000000                                 	EXTERN	_boxfill8
    16 00000000                                 	EXTERN	_sheet_refresh
    17 00000000                                 	EXTERN	_task_sleep
    18 00000000                                 	EXTERN	_putfouts8_asc_sht
    19 00000000                                 	EXTERN	_memman_total
    20 00000000                                 	EXTERN	_sprintf
    21 00000000                                 	EXTERN	_cpath
    22 00000000                                 	EXTERN	_file_loadfile
    23 00000000                                 	EXTERN	_file_search2
    24 00000000                                 	EXTERN	_strncpy
    25 00000000                                 	EXTERN	_taskctl
    26 00000000                                 	EXTERN	_timer_cancel
    27 00000000                                 	EXTERN	_fifo32_put_io
    28 00000000                                 	EXTERN	_file_path
    29 00000000                                 	EXTERN	_strcpy
    30 00000000                                 	EXTERN	_open_console
    31 00000000                                 	EXTERN	_sheet_slide
    32 00000000                                 	EXTERN	_sheet_updown
    33 00000000                                 	EXTERN	_open_constask
    34 00000000                                 	EXTERN	_file_loadfile2
    35 00000000                                 	EXTERN	_memman_free_4k
    36 00000000                                 	EXTERN	_memman_alloc_4k
    37 00000000                                 	EXTERN	_set_segmdesc
    38 00000000                                 	EXTERN	_start_app
    39 00000000                                 	EXTERN	_timer_cancelall
    40 00000000                                 	EXTERN	_sheet_free
    41 00000000                                 	EXTERN	_strrchr
    42 00000000                                 	EXTERN	_epath
    43 00000000                                 	EXTERN	_strncat
    44 00000000                                 	EXTERN	_strcat
    45 00000000                                 	EXTERN	_io_out8
    46 00000000                                 	EXTERN	_io_in8
    47 00000000                                 	EXTERN	_putfonts8_asc
    48 00000000                                 	EXTERN	_timer_free
    49 00000000                                 	EXTERN	_table_8_565
    50 00000000                                 	EXTERN	_memman_free
    51 00000000                                 	EXTERN	_memman_alloc
    52 00000000                                 	EXTERN	_memman_init
    53 00000000                                 	EXTERN	_sheet_alloc
    54 00000000                                 	EXTERN	_sheet_setbuf
    55 00000000                                 	EXTERN	_make_window8
    56 00000000                                 	EXTERN	_keywin_on
    57 00000000                                 	EXTERN	_file_skipfile
    58 00000000                                 	EXTERN	_file_insert
    59 00000000                                 	EXTERN	_file_savefile
    60 00000000                                 	EXTERN	_file_clearfat
    61 00000000                                 	EXTERN	_file_move
    62 00000000                                 [FILE "console.c"]
    63                                          [SECTION .text]
    64 00000000                                 	GLOBAL	_console_task
    65 00000000                                 _console_task:
    66 00000000 55                              	PUSH	EBP
    67 00000001 89 E5                           	MOV	EBP,ESP
    68 00000003 57                              	PUSH	EDI
    69 00000004 56                              	PUSH	ESI
    70 00000005 53                              	PUSH	EBX
    71 00000006 81 EC 00000108                  	SUB	ESP,264
    72 0000000C 8B 5D 08                        	MOV	EBX,DWORD [8+EBP]
    73 0000000F E8 [00000000]                   	CALL	_task_now
    74 00000014 89 C7                           	MOV	EDI,EAX
    75 00000016 89 1D [000001B0]                	MOV	DWORD [_cons],EBX
    76 0000001C A1 00000FE8                     	MOV	EAX,DWORD [4072]
    77 00000021 85 DB                           	TEST	EBX,EBX
    78 00000023 89 85 FFFFFEF0                  	MOV	DWORD [-272+EBP],EAX
    79 00000029 8D 85 FFFFFEF4                  	LEA	EAX,DWORD [-268+EBP]
    80 0000002F C7 05 [000001B4] 00000008       	MOV	DWORD [_cons+4],8
    81 00000039 C7 05 [000001B8] 0000001C       	MOV	DWORD [_cons+8],28
    82 00000043 C7 05 [000001BC] FFFFFFFF       	MOV	DWORD [_cons+12],-1
    83 0000004D C7 87 00000110 [000001B0]       	MOV	DWORD [272+EDI],_cons
    84 00000057 89 87 00000124                  	MOV	DWORD [292+EDI],EAX
    85 0000005D 74 26                           	JE	L2
    86 0000005F E8 [00000000]                   	CALL	_timer_alloc
    87 00000064 8D 57 10                        	LEA	EDX,DWORD [16+EDI]
    88 00000067 6A 01                           	PUSH	1
    89 00000069 A3 [000001C0]                   	MOV	DWORD [_cons+16],EAX
    90 0000006E 52                              	PUSH	EDX
    91 0000006F 50                              	PUSH	EAX
    92 00000070 E8 [00000000]                   	CALL	_timer_init
    93 00000075 6A 32                           	PUSH	50
    94 00000077 FF 35 [000001C0]                	PUSH	DWORD [_cons+16]
    95 0000007D E8 [00000000]                   	CALL	_timer_settime
    96 00000082 83 C4 14                        	ADD	ESP,20
    97 00000085                                 L2:
    98 00000085 31 C0                           	XOR	EAX,EAX
    99 00000087 BE 00000007                     	MOV	ESI,7
   100 0000008C                                 L7:
   101 0000008C C7 84 05 FFFFFF14 00000000      	MOV	DWORD [-236+EBP+EAX*1],0
   102 00000097 83 C0 1C                        	ADD	EAX,28
   103 0000009A 4E                              	DEC	ESI
   104 0000009B 79 EF                           	JNS	L7
   105 0000009D 8D 85 FFFFFF14                  	LEA	EAX,DWORD [-236+EBP]
   106 000000A3 8B 8D FFFFFEF0                  	MOV	ECX,DWORD [-272+EBP]
   107 000000A9 89 87 0000011C                  	MOV	DWORD [284+EDI],EAX
   108 000000AF A1 [00000000]                   	MOV	EAX,DWORD [_u_fat]
   109 000000B4 89 87 00000120                  	MOV	DWORD [288+EDI],EAX
   110 000000BA 80 B9 00001000 FF               	CMP	BYTE [4096+ECX],-1
   111 000000C1 C6 87 00000129 00               	MOV	BYTE [297+EDI],0
   112 000000C8 0F 95 87 00000128               	SETNE	BYTE [296+EDI]
   113 000000CF 6A 01                           	PUSH	1
   114 000000D1 6A 3E                           	PUSH	62
   115 000000D3 68 [000001B0]                   	PUSH	_cons
   116 000000D8 E8 0000028A                     	CALL	_cons_putchar
   117 000000DD 83 C4 0C                        	ADD	ESP,12
   118 000000E0                                 L10:
   119 000000E0 8D 5F 10                        	LEA	EBX,DWORD [16+EDI]
   120 000000E3 E8 [00000000]                   	CALL	_io_cli
   121 000000E8 53                              	PUSH	EBX
   122 000000E9 E8 [00000000]                   	CALL	_fifo32_status
   123 000000EE 5A                              	POP	EDX
   124 000000EF 85 C0                           	TEST	EAX,EAX
   125 000000F1 0F 84 0000025F                  	JE	L38
   126 000000F7 53                              	PUSH	EBX
   127 000000F8 E8 [00000000]                   	CALL	_fifo32_get
   128 000000FD 89 C6                           	MOV	ESI,EAX
   129 000000FF E8 [00000000]                   	CALL	_io_sti
   130 00000104 58                              	POP	EAX
   131 00000105 83 FE 01                        	CMP	ESI,1
   132 00000108 0F 8E 000001D9                  	JLE	L39
   133 0000010E                                 L15:
   134 0000010E 83 FE 02                        	CMP	ESI,2
   135 00000111 0F 84 000001C1                  	JE	L40
   136 00000117                                 L20:
   137 00000117 83 FE 03                        	CMP	ESI,3
   138 0000011A 0F 84 0000017A                  	JE	L41
   139 00000120                                 L21:
   140 00000120 83 FE 04                        	CMP	ESI,4
   141 00000123 0F 84 00000161                  	JE	L42
   142 00000129                                 L23:
   143 00000129 8D 9E FFFFFF00                  	LEA	EBX,DWORD [-256+ESI]
   144 0000012F 89 9D FFFFFEEC                  	MOV	DWORD [-276+EBP],EBX
   145 00000135 81 FB 000000FF                  	CMP	EBX,255
   146 0000013B 77 52                           	JA	L24
   147 0000013D 81 FE 00000108                  	CMP	ESI,264
   148 00000143 0F 84 0000011A                  	JE	L43
   149 00000149 81 FE 0000010A                  	CMP	ESI,266
   150 0000014F 0F 84 000000A5                  	JE	L44
   151 00000155 8B 0D [000001B4]                	MOV	ECX,DWORD [_cons+4]
   152 0000015B 81 F9 000000EF                  	CMP	ECX,239
   153 00000161 7F 2C                           	JG	L24
   154 00000163 89 C8                           	MOV	EAX,ECX
   155 00000165 BA 00000008                     	MOV	EDX,8
   156 0000016A 89 D3                           	MOV	EBX,EDX
   157 0000016C 6A 01                           	PUSH	1
   158 0000016E 99                              	CDQ
   159 0000016F F7 FB                           	IDIV	EBX
   160 00000171 89 C1                           	MOV	ECX,EAX
   161 00000173 89 F0                           	MOV	EAX,ESI
   162 00000175 88 84 0D FFFFFEF2               	MOV	BYTE [-270+EBP+ECX*1],AL
   163 0000017C FF B5 FFFFFEEC                  	PUSH	DWORD [-276+EBP]
   164 00000182                                 L36:
   165 00000182 68 [000001B0]                   	PUSH	_cons
   166 00000187 E8 000001DB                     	CALL	_cons_putchar
   167 0000018C                                 L37:
   168 0000018C 83 C4 0C                        	ADD	ESP,12
   169 0000018F                                 L24:
   170 0000018F 8B 1D [000001B0]                	MOV	EBX,DWORD [_cons]
   171 00000195 85 DB                           	TEST	EBX,EBX
   172 00000197 0F 84 FFFFFF43                  	JE	L10
   173 0000019D 83 3D [000001BC] 00             	CMP	DWORD [_cons+12],0
   174 000001A4 78 2B                           	JS	L33
   175 000001A6 8B 0D [000001B8]                	MOV	ECX,DWORD [_cons+8]
   176 000001AC 8B 15 [000001B4]                	MOV	EDX,DWORD [_cons+4]
   177 000001B2 8D 41 0F                        	LEA	EAX,DWORD [15+ECX]
   178 000001B5 50                              	PUSH	EAX
   179 000001B6 8D 42 07                        	LEA	EAX,DWORD [7+EDX]
   180 000001B9 50                              	PUSH	EAX
   181 000001BA 51                              	PUSH	ECX
   182 000001BB 52                              	PUSH	EDX
   183 000001BC 0F B6 05 [000001BC]             	MOVZX	EAX,BYTE [_cons+12]
   184 000001C3 50                              	PUSH	EAX
   185 000001C4 FF 73 04                        	PUSH	DWORD [4+EBX]
   186 000001C7 FF 33                           	PUSH	DWORD [EBX]
   187 000001C9 E8 [00000000]                   	CALL	_boxfill8
   188 000001CE 83 C4 1C                        	ADD	ESP,28
   189 000001D1                                 L33:
   190 000001D1 8B 0D [000001B8]                	MOV	ECX,DWORD [_cons+8]
   191 000001D7 8B 15 [000001B4]                	MOV	EDX,DWORD [_cons+4]
   192 000001DD 8D 41 10                        	LEA	EAX,DWORD [16+ECX]
   193 000001E0 50                              	PUSH	EAX
   194 000001E1 8D 42 08                        	LEA	EAX,DWORD [8+EDX]
   195 000001E4 50                              	PUSH	EAX
   196 000001E5 51                              	PUSH	ECX
   197 000001E6 52                              	PUSH	EDX
   198 000001E7 FF 35 [000001B0]                	PUSH	DWORD [_cons]
   199 000001ED E8 [00000000]                   	CALL	_sheet_refresh
   200 000001F2 83 C4 14                        	ADD	ESP,20
   201 000001F5 E9 FFFFFEE6                     	JMP	L10
   202 000001FA                                 L44:
   203 000001FA 6A 00                           	PUSH	0
   204 000001FC 6A 20                           	PUSH	32
   205 000001FE 68 [000001B0]                   	PUSH	_cons
   206 00000203 E8 0000015F                     	CALL	_cons_putchar
   207 00000208 68 [000001B0]                   	PUSH	_cons
   208 0000020D A1 [000001B4]                   	MOV	EAX,DWORD [_cons+4]
   209 00000212 BA 00000008                     	MOV	EDX,8
   210 00000217 89 D1                           	MOV	ECX,EDX
   211 00000219 99                              	CDQ
   212 0000021A F7 F9                           	IDIV	ECX
   213 0000021C C6 84 05 FFFFFEF2 00            	MOV	BYTE [-270+EBP+EAX*1],0
   214 00000224 E8 000001EF                     	CALL	_cons_newline
   215 00000229 8D 85 FFFFFEF4                  	LEA	EAX,DWORD [-268+EBP]
   216 0000022F FF 75 0C                        	PUSH	DWORD [12+EBP]
   217 00000232 FF 35 [00000000]                	PUSH	DWORD [_u_fat]
   218 00000238 68 [000001B0]                   	PUSH	_cons
   219 0000023D 50                              	PUSH	EAX
   220 0000023E E8 00000334                     	CALL	_cons_runcmd
   221 00000243 83 C4 20                        	ADD	ESP,32
   222 00000246 83 3D [000001B0] 00             	CMP	DWORD [_cons],0
   223 0000024D 75 0B                           	JNE	L29
   224 0000024F 68 [000001B0]                   	PUSH	_cons
   225 00000254 E8 00000835                     	CALL	_cmd_exit
   226 00000259 58                              	POP	EAX
   227 0000025A                                 L29:
   228 0000025A 6A 01                           	PUSH	1
   229 0000025C 6A 3E                           	PUSH	62
   230 0000025E E9 FFFFFF1F                     	JMP	L36
   231 00000263                                 L43:
   232 00000263 83 3D [000001B4] 10             	CMP	DWORD [_cons+4],16
   233 0000026A 0F 8E FFFFFF1F                  	JLE	L24
   234 00000270 6A 00                           	PUSH	0
   235 00000272 6A 20                           	PUSH	32
   236 00000274 68 [000001B0]                   	PUSH	_cons
   237 00000279 E8 000000E9                     	CALL	_cons_putchar
   238 0000027E 83 2D [000001B4] 08             	SUB	DWORD [_cons+4],8
   239 00000285 E9 FFFFFF02                     	JMP	L37
   240 0000028A                                 L42:
   241 0000028A 68 [000001B0]                   	PUSH	_cons
   242 0000028F E8 000007FA                     	CALL	_cmd_exit
   243 00000294 5A                              	POP	EDX
   244 00000295 E9 FFFFFE8F                     	JMP	L23
   245 0000029A                                 L41:
   246 0000029A 8B 1D [000001B0]                	MOV	EBX,DWORD [_cons]
   247 000002A0 85 DB                           	TEST	EBX,EBX
   248 000002A2 74 25                           	JE	L22
   249 000002A4 8B 0D [000001B8]                	MOV	ECX,DWORD [_cons+8]
   250 000002AA 8B 15 [000001B4]                	MOV	EDX,DWORD [_cons+4]
   251 000002B0 8D 41 0F                        	LEA	EAX,DWORD [15+ECX]
   252 000002B3 50                              	PUSH	EAX
   253 000002B4 8D 42 07                        	LEA	EAX,DWORD [7+EDX]
   254 000002B7 50                              	PUSH	EAX
   255 000002B8 51                              	PUSH	ECX
   256 000002B9 52                              	PUSH	EDX
   257 000002BA 6A 00                           	PUSH	0
   258 000002BC FF 73 04                        	PUSH	DWORD [4+EBX]
   259 000002BF FF 33                           	PUSH	DWORD [EBX]
   260 000002C1 E8 [00000000]                   	CALL	_boxfill8
   261 000002C6 83 C4 1C                        	ADD	ESP,28
   262 000002C9                                 L22:
   263 000002C9 C7 05 [000001BC] FFFFFFFF       	MOV	DWORD [_cons+12],-1
   264 000002D3 E9 FFFFFE48                     	JMP	L21
   265 000002D8                                 L40:
   266 000002D8 C7 05 [000001BC] 00000007       	MOV	DWORD [_cons+12],7
   267 000002E2 E9 FFFFFE30                     	JMP	L20
   268 000002E7                                 L39:
   269 000002E7 83 3D [000001B0] 00             	CMP	DWORD [_cons],0
   270 000002EE 0F 84 FFFFFE1A                  	JE	L15
   271 000002F4 85 F6                           	TEST	ESI,ESI
   272 000002F6 74 38                           	JE	L16
   273 000002F8 6A 00                           	PUSH	0
   274 000002FA 53                              	PUSH	EBX
   275 000002FB FF 35 [000001C0]                	PUSH	DWORD [_cons+16]
   276 00000301 E8 [00000000]                   	CALL	_timer_init
   277 00000306 83 C4 0C                        	ADD	ESP,12
   278 00000309 83 3D [000001BC] 00             	CMP	DWORD [_cons+12],0
   279 00000310 78 0A                           	JS	L18
   280 00000312 C7 05 [000001BC] 00000007       	MOV	DWORD [_cons+12],7
   281 0000031C                                 L18:
   282 0000031C 6A 32                           	PUSH	50
   283 0000031E FF 35 [000001C0]                	PUSH	DWORD [_cons+16]
   284 00000324 E8 [00000000]                   	CALL	_timer_settime
   285 00000329 59                              	POP	ECX
   286 0000032A 5B                              	POP	EBX
   287 0000032B E9 FFFFFDDE                     	JMP	L15
   288 00000330                                 L16:
   289 00000330 6A 01                           	PUSH	1
   290 00000332 53                              	PUSH	EBX
   291 00000333 FF 35 [000001C0]                	PUSH	DWORD [_cons+16]
   292 00000339 E8 [00000000]                   	CALL	_timer_init
   293 0000033E 83 C4 0C                        	ADD	ESP,12
   294 00000341 83 3D [000001BC] 00             	CMP	DWORD [_cons+12],0
   295 00000348 78 D2                           	JS	L18
   296 0000034A C7 05 [000001BC] 00000000       	MOV	DWORD [_cons+12],0
   297 00000354 EB C6                           	JMP	L18
   298 00000356                                 L38:
   299 00000356 57                              	PUSH	EDI
   300 00000357 E8 [00000000]                   	CALL	_task_sleep
   301 0000035C E8 [00000000]                   	CALL	_io_sti
   302 00000361 58                              	POP	EAX
   303 00000362 E9 FFFFFD79                     	JMP	L10
   304                                          [SECTION .data]
   305 00000000                                 LC0:
   306 00000000 20 00                           	DB	" ",0x00
   307                                          [SECTION .text]
   308 00000367                                 	GLOBAL	_cons_putchar
   309 00000367                                 _cons_putchar:
   310 00000367 55                              	PUSH	EBP
   311 00000368 89 E5                           	MOV	EBP,ESP
   312 0000036A 53                              	PUSH	EBX
   313 0000036B 50                              	PUSH	EAX
   314 0000036C 8B 45 0C                        	MOV	EAX,DWORD [12+EBP]
   315 0000036F 8A 55 10                        	MOV	DL,BYTE [16+EBP]
   316 00000372 8B 5D 08                        	MOV	EBX,DWORD [8+EBP]
   317 00000375 88 55 F9                        	MOV	BYTE [-7+EBP],DL
   318 00000378 88 45 FA                        	MOV	BYTE [-6+EBP],AL
   319 0000037B 3C 09                           	CMP	AL,9
   320 0000037D C6 45 FB 00                     	MOV	BYTE [-5+EBP],0
   321 00000381 74 4D                           	JE	L47
   322 00000383 3C 0A                           	CMP	AL,10
   323 00000385 74 25                           	JE	L61
   324 00000387 3C 0D                           	CMP	AL,13
   325 00000389 74 1C                           	JE	L45
   326 0000038B 8B 13                           	MOV	EDX,DWORD [EBX]
   327 0000038D 85 D2                           	TEST	EDX,EDX
   328 0000038F 75 24                           	JNE	L62
   329 00000391                                 L58:
   330 00000391 80 7D F9 00                     	CMP	BYTE [-7+EBP],0
   331 00000395 74 10                           	JE	L45
   332 00000397 8B 43 04                        	MOV	EAX,DWORD [4+EBX]
   333 0000039A 83 C0 08                        	ADD	EAX,8
   334 0000039D 89 43 04                        	MOV	DWORD [4+EBX],EAX
   335 000003A0 3D 000000F8                     	CMP	EAX,248
   336 000003A5 74 05                           	JE	L61
   337 000003A7                                 L45:
   338 000003A7 8B 5D FC                        	MOV	EBX,DWORD [-4+EBP]
   339 000003AA C9                              	LEAVE
   340 000003AB C3                              	RET
   341 000003AC                                 L61:
   342 000003AC 53                              	PUSH	EBX
   343 000003AD E8 00000066                     	CALL	_cons_newline
   344 000003B2 59                              	POP	ECX
   345 000003B3 EB F2                           	JMP	L45
   346 000003B5                                 L62:
   347 000003B5 6A 01                           	PUSH	1
   348 000003B7 8D 45 FA                        	LEA	EAX,DWORD [-6+EBP]
   349 000003BA 50                              	PUSH	EAX
   350 000003BB 6A 00                           	PUSH	0
   351 000003BD 6A 07                           	PUSH	7
   352 000003BF FF 73 08                        	PUSH	DWORD [8+EBX]
   353 000003C2 FF 73 04                        	PUSH	DWORD [4+EBX]
   354 000003C5 52                              	PUSH	EDX
   355 000003C6 E8 [00000000]                   	CALL	_putfouts8_asc_sht
   356 000003CB 83 C4 1C                        	ADD	ESP,28
   357 000003CE EB C1                           	JMP	L58
   358 000003D0                                 L47:
   359 000003D0 8B 03                           	MOV	EAX,DWORD [EBX]
   360 000003D2 85 C0                           	TEST	EAX,EAX
   361 000003D4 75 26                           	JNE	L63
   362 000003D6                                 L50:
   363 000003D6 8B 43 04                        	MOV	EAX,DWORD [4+EBX]
   364 000003D9 83 C0 08                        	ADD	EAX,8
   365 000003DC 89 43 04                        	MOV	DWORD [4+EBX],EAX
   366 000003DF 3D 000000F8                     	CMP	EAX,248
   367 000003E4 74 0D                           	JE	L64
   368 000003E6                                 L51:
   369 000003E6 8B 43 04                        	MOV	EAX,DWORD [4+EBX]
   370 000003E9 83 E8 08                        	SUB	EAX,8
   371 000003EC 83 E0 1F                        	AND	EAX,31
   372 000003EF 75 DF                           	JNE	L47
   373 000003F1 EB B4                           	JMP	L45
   374 000003F3                                 L64:
   375 000003F3 53                              	PUSH	EBX
   376 000003F4 E8 0000001F                     	CALL	_cons_newline
   377 000003F9 58                              	POP	EAX
   378 000003FA EB EA                           	JMP	L51
   379 000003FC                                 L63:
   380 000003FC 6A 01                           	PUSH	1
   381 000003FE 68 [00000000]                   	PUSH	LC0
   382 00000403 6A 00                           	PUSH	0
   383 00000405 6A 07                           	PUSH	7
   384 00000407 FF 73 08                        	PUSH	DWORD [8+EBX]
   385 0000040A FF 73 04                        	PUSH	DWORD [4+EBX]
   386 0000040D 50                              	PUSH	EAX
   387 0000040E E8 [00000000]                   	CALL	_putfouts8_asc_sht
   388 00000413 83 C4 1C                        	ADD	ESP,28
   389 00000416 EB BE                           	JMP	L50
   390 00000418                                 	GLOBAL	_cons_newline
   391 00000418                                 _cons_newline:
   392 00000418 55                              	PUSH	EBP
   393 00000419 89 E5                           	MOV	EBP,ESP
   394 0000041B 57                              	PUSH	EDI
   395 0000041C 56                              	PUSH	ESI
   396 0000041D 53                              	PUSH	EBX
   397 0000041E 83 EC 10                        	SUB	ESP,16
   398 00000421 8B 45 08                        	MOV	EAX,DWORD [8+EBP]
   399 00000424 8B 00                           	MOV	EAX,DWORD [EAX]
   400 00000426 89 45 F0                        	MOV	DWORD [-16+EBP],EAX
   401 00000429 E8 [00000000]                   	CALL	_task_now
   402 0000042E 8B 55 08                        	MOV	EDX,DWORD [8+EBP]
   403 00000431 89 45 EC                        	MOV	DWORD [-20+EBP],EAX
   404 00000434 8B 42 08                        	MOV	EAX,DWORD [8+EDX]
   405 00000437 3D 0000008B                     	CMP	EAX,139
   406 0000043C 7F 36                           	JG	L66
   407 0000043E 83 C0 10                        	ADD	EAX,16
   408 00000441 89 42 08                        	MOV	DWORD [8+EDX],EAX
   409 00000444                                 L67:
   410 00000444 8B 45 08                        	MOV	EAX,DWORD [8+EBP]
   411 00000447 8B 55 EC                        	MOV	EDX,DWORD [-20+EBP]
   412 0000044A C7 40 04 00000008               	MOV	DWORD [4+EAX],8
   413 00000451 80 BA 00000128 01               	CMP	BYTE [296+EDX],1
   414 00000458 74 08                           	JE	L98
   415 0000045A                                 L65:
   416 0000045A 8D 65 F4                        	LEA	ESP,DWORD [-12+EBP]
   417 0000045D 5B                              	POP	EBX
   418 0000045E 5E                              	POP	ESI
   419 0000045F 5F                              	POP	EDI
   420 00000460 5D                              	POP	EBP
   421 00000461 C3                              	RET
   422 00000462                                 L98:
   423 00000462 80 BA 00000129 00               	CMP	BYTE [297+EDX],0
   424 00000469 74 EF                           	JE	L65
   425 0000046B C7 40 04 00000010               	MOV	DWORD [4+EAX],16
   426 00000472 EB E6                           	JMP	L65
   427 00000474                                 L66:
   428 00000474 83 7D F0 00                     	CMP	DWORD [-16+EBP],0
   429 00000478 74 CA                           	JE	L67
   430 0000047A BB 0000001C                     	MOV	EBX,28
   431 0000047F                                 L78:
   432 0000047F 8B 45 F0                        	MOV	EAX,DWORD [-16+EBP]
   433 00000482 8B 55 F0                        	MOV	EDX,DWORD [-16+EBP]
   434 00000485 B9 00000008                     	MOV	ECX,8
   435 0000048A 8B 40 04                        	MOV	EAX,DWORD [4+EAX]
   436 0000048D 8B 12                           	MOV	EDX,DWORD [EDX]
   437 0000048F 89 45 E8                        	MOV	DWORD [-24+EBP],EAX
   438 00000492 89 55 E4                        	MOV	DWORD [-28+EBP],EDX
   439 00000495                                 L77:
   440 00000495 8B 75 E8                        	MOV	ESI,DWORD [-24+EBP]
   441 00000498 8D 53 10                        	LEA	EDX,DWORD [16+EBX]
   442 0000049B 0F AF D6                        	IMUL	EDX,ESI
   443 0000049E 89 D8                           	MOV	EAX,EBX
   444 000004A0 8B 7D E4                        	MOV	EDI,DWORD [-28+EBP]
   445 000004A3 0F AF C6                        	IMUL	EAX,ESI
   446 000004A6 8D 14 0A                        	LEA	EDX,DWORD [EDX+ECX*1]
   447 000004A9 8D 04 08                        	LEA	EAX,DWORD [EAX+ECX*1]
   448 000004AC 41                              	INC	ECX
   449 000004AD 66 8B 14 57                     	MOV	DX,WORD [EDI+EDX*2]
   450 000004B1 81 F9 000000F7                  	CMP	ECX,247
   451 000004B7 66 89 14 47                     	MOV	WORD [EDI+EAX*2],DX
   452 000004BB 7E D8                           	JLE	L77
   453 000004BD 43                              	INC	EBX
   454 000004BE 81 FB 0000008B                  	CMP	EBX,139
   455 000004C4 7E B9                           	JLE	L78
   456 000004C6 89 F2                           	MOV	EDX,ESI
   457 000004C8 BB 0000008C                     	MOV	EBX,140
   458 000004CD 69 D2 0000008C                  	IMUL	EDX,EDX,140
   459 000004D3                                 L88:
   460 000004D3 B9 00000008                     	MOV	ECX,8
   461 000004D8 8D 44 57 10                     	LEA	EAX,DWORD [16+EDI+EDX*2]
   462 000004DC                                 L87:
   463 000004DC 66 C7 00 0000                   	MOV	WORD [EAX],0
   464 000004E1 41                              	INC	ECX
   465 000004E2 83 C0 02                        	ADD	EAX,2
   466 000004E5 81 F9 000000F7                  	CMP	ECX,247
   467 000004EB 7E EF                           	JLE	L87
   468 000004ED 43                              	INC	EBX
   469 000004EE 01 F2                           	ADD	EDX,ESI
   470 000004F0 81 FB 0000009B                  	CMP	EBX,155
   471 000004F6 7E DB                           	JLE	L88
   472 000004F8 68 0000009C                     	PUSH	156
   473 000004FD 68 000000F8                     	PUSH	248
   474 00000502 6A 1C                           	PUSH	28
   475 00000504 6A 08                           	PUSH	8
   476 00000506 FF 75 F0                        	PUSH	DWORD [-16+EBP]
   477 00000509 E8 [00000000]                   	CALL	_sheet_refresh
   478 0000050E 83 C4 14                        	ADD	ESP,20
   479 00000511 E9 FFFFFF2E                     	JMP	L67
   480 00000516                                 	GLOBAL	_cons_putstr0
   481 00000516                                 _cons_putstr0:
   482 00000516 55                              	PUSH	EBP
   483 00000517 89 E5                           	MOV	EBP,ESP
   484 00000519 56                              	PUSH	ESI
   485 0000051A 53                              	PUSH	EBX
   486 0000051B 8B 5D 0C                        	MOV	EBX,DWORD [12+EBP]
   487 0000051E 8B 75 08                        	MOV	ESI,DWORD [8+EBP]
   488 00000521 80 3B 00                        	CMP	BYTE [EBX],0
   489 00000524 75 07                           	JNE	L104
   490 00000526                                 L106:
   491 00000526 8D 65 F8                        	LEA	ESP,DWORD [-8+EBP]
   492 00000529 5B                              	POP	EBX
   493 0000052A 5E                              	POP	ESI
   494 0000052B 5D                              	POP	EBP
   495 0000052C C3                              	RET
   496 0000052D                                 L104:
   497 0000052D 6A 01                           	PUSH	1
   498 0000052F 0F BE 03                        	MOVSX	EAX,BYTE [EBX]
   499 00000532 50                              	PUSH	EAX
   500 00000533 43                              	INC	EBX
   501 00000534 56                              	PUSH	ESI
   502 00000535 E8 FFFFFE2D                     	CALL	_cons_putchar
   503 0000053A 83 C4 0C                        	ADD	ESP,12
   504 0000053D 80 3B 00                        	CMP	BYTE [EBX],0
   505 00000540 75 EB                           	JNE	L104
   506 00000542 EB E2                           	JMP	L106
   507 00000544                                 	GLOBAL	_cons_putstr1
   508 00000544                                 _cons_putstr1:
   509 00000544 55                              	PUSH	EBP
   510 00000545 89 E5                           	MOV	EBP,ESP
   511 00000547 57                              	PUSH	EDI
   512 00000548 56                              	PUSH	ESI
   513 00000549 53                              	PUSH	EBX
   514 0000054A 8B 75 10                        	MOV	ESI,DWORD [16+EBP]
   515 0000054D 31 DB                           	XOR	EBX,EBX
   516 0000054F 8B 7D 0C                        	MOV	EDI,DWORD [12+EBP]
   517 00000552 39 F3                           	CMP	EBX,ESI
   518 00000554 7C 08                           	JL	L112
   519 00000556                                 L114:
   520 00000556 8D 65 F4                        	LEA	ESP,DWORD [-12+EBP]
   521 00000559 5B                              	POP	EBX
   522 0000055A 5E                              	POP	ESI
   523 0000055B 5F                              	POP	EDI
   524 0000055C 5D                              	POP	EBP
   525 0000055D C3                              	RET
   526 0000055E                                 L112:
   527 0000055E 6A 01                           	PUSH	1
   528 00000560 0F BE 04 3B                     	MOVSX	EAX,BYTE [EBX+EDI*1]
   529 00000564 50                              	PUSH	EAX
   530 00000565 43                              	INC	EBX
   531 00000566 FF 75 08                        	PUSH	DWORD [8+EBP]
   532 00000569 E8 FFFFFDF9                     	CALL	_cons_putchar
   533 0000056E 83 C4 0C                        	ADD	ESP,12
   534 00000571 39 F3                           	CMP	EBX,ESI
   535 00000573 7C E9                           	JL	L112
   536 00000575 EB DF                           	JMP	L114
   537                                          [SECTION .data]
   538 00000002                                 LC1:
   539 00000002 6D 65 6D 00                     	DB	"mem",0x00
   540 00000006                                 LC2:
   541 00000006 63 6C 73 00                     	DB	"cls",0x00
   542 0000000A                                 LC3:
   543 0000000A 64 69 72 00                     	DB	"dir",0x00
   544 0000000E                                 LC4:
   545 0000000E 70 77 64 00                     	DB	"pwd",0x00
   546 00000012                                 LC5:
   547 00000012 74 61 73 6B 00                  	DB	"task",0x00
   548 00000017                                 LC6:
   549 00000017 65 78 69 74 00                  	DB	"exit",0x00
   550 0000001C                                 LC7:
   551 0000001C 63 64 20 00                     	DB	"cd ",0x00
   552 00000020                                 LC8:
   553 00000020 64 65 6C 20 00                  	DB	"del ",0x00
   554 00000025                                 LC9:
   555 00000025 73 74 61 72 74 20 00            	DB	"start ",0x00
   556 0000002C                                 LC10:
   557 0000002C 6E 63 73 74 20 00               	DB	"ncst ",0x00
   558 00000032                                 LC11:
   559 00000032 6C 61 6E 67 6D 6F 64 65 20 00   	DB	"langmode ",0x00
   560 0000003C                                 LC12:
   561 0000003C 42 61 64 20 63 6F 6D 6D 61 6E   	DB	"Bad command.",0x0A,0x0A,0x00
       00000046 64 2E 0A 0A 00 
   562                                          [SECTION .text]
   563 00000577                                 	GLOBAL	_cons_runcmd
   564 00000577                                 _cons_runcmd:
   565 00000577 55                              	PUSH	EBP
   566 00000578 89 E5                           	MOV	EBP,ESP
   567 0000057A 57                              	PUSH	EDI
   568 0000057B 56                              	PUSH	ESI
   569 0000057C BF [00000002]                   	MOV	EDI,LC1
   570 00000581 53                              	PUSH	EBX
   571 00000582 83 EC 0C                        	SUB	ESP,12
   572 00000585 8B 45 08                        	MOV	EAX,DWORD [8+EBP]
   573 00000588 8B 4D 10                        	MOV	ECX,DWORD [16+EBP]
   574 0000058B 89 45 E8                        	MOV	DWORD [-24+EBP],EAX
   575 0000058E 89 4D F0                        	MOV	DWORD [-16+EBP],ECX
   576 00000591 8B 45 14                        	MOV	EAX,DWORD [20+EBP]
   577 00000594 8B 75 E8                        	MOV	ESI,DWORD [-24+EBP]
   578 00000597 89 45 EC                        	MOV	DWORD [-20+EBP],EAX
   579 0000059A 8B 5D 0C                        	MOV	EBX,DWORD [12+EBP]
   580 0000059D B8 00000004                     	MOV	EAX,4
   581 000005A2 FC                              	CLD
   582 000005A3 89 C1                           	MOV	ECX,EAX
   583 000005A5 F3                              	REPE
   584 000005A6 A6                              	CMPSB
   585 000005A7 75 09                           	JNE	L116
   586 000005A9 83 3B 00                        	CMP	DWORD [EBX],0
   587 000005AC 0F 85 000001FA                  	JNE	L140
   588 000005B2                                 L116:
   589 000005B2 B8 00000004                     	MOV	EAX,4
   590 000005B7 8B 75 E8                        	MOV	ESI,DWORD [-24+EBP]
   591 000005BA FC                              	CLD
   592 000005BB BF [00000006]                   	MOV	EDI,LC2
   593 000005C0 89 C1                           	MOV	ECX,EAX
   594 000005C2 F3                              	REPE
   595 000005C3 A6                              	CMPSB
   596 000005C4 75 09                           	JNE	L118
   597 000005C6 83 3B 00                        	CMP	DWORD [EBX],0
   598 000005C9 0F 85 000001D1                  	JNE	L141
   599 000005CF                                 L118:
   600 000005CF B8 00000004                     	MOV	EAX,4
   601 000005D4 8B 75 E8                        	MOV	ESI,DWORD [-24+EBP]
   602 000005D7 FC                              	CLD
   603 000005D8 BF [0000000A]                   	MOV	EDI,LC3
   604 000005DD 89 C1                           	MOV	ECX,EAX
   605 000005DF F3                              	REPE
   606 000005E0 A6                              	CMPSB
   607 000005E1 75 09                           	JNE	L120
   608 000005E3 83 3B 00                        	CMP	DWORD [EBX],0
   609 000005E6 0F 85 0000019F                  	JNE	L142
   610 000005EC                                 L120:
   611 000005EC B8 00000004                     	MOV	EAX,4
   612 000005F1 8B 75 E8                        	MOV	ESI,DWORD [-24+EBP]
   613 000005F4 FC                              	CLD
   614 000005F5 BF [0000000E]                   	MOV	EDI,LC4
   615 000005FA 89 C1                           	MOV	ECX,EAX
   616 000005FC F3                              	REPE
   617 000005FD A6                              	CMPSB
   618 000005FE 75 09                           	JNE	L122
   619 00000600 83 3B 00                        	CMP	DWORD [EBX],0
   620 00000603 0F 85 00000173                  	JNE	L143
   621 00000609                                 L122:
   622 00000609 B8 00000005                     	MOV	EAX,5
   623 0000060E 8B 75 E8                        	MOV	ESI,DWORD [-24+EBP]
   624 00000611 FC                              	CLD
   625 00000612 BF [00000012]                   	MOV	EDI,LC5
   626 00000617 89 C1                           	MOV	ECX,EAX
   627 00000619 F3                              	REPE
   628 0000061A A6                              	CMPSB
   629 0000061B 0F 84 0000014F                  	JE	L144
   630 00000621 B8 00000005                     	MOV	EAX,5
   631 00000626 8B 75 E8                        	MOV	ESI,DWORD [-24+EBP]
   632 00000629 FC                              	CLD
   633 0000062A BF [00000017]                   	MOV	EDI,LC6
   634 0000062F 89 C1                           	MOV	ECX,EAX
   635 00000631 F3                              	REPE
   636 00000632 A6                              	CMPSB
   637 00000633 0F 84 00000128                  	JE	L145
   638 00000639 B8 00000003                     	MOV	EAX,3
   639 0000063E 8B 75 E8                        	MOV	ESI,DWORD [-24+EBP]
   640 00000641 FC                              	CLD
   641 00000642 BF [0000001C]                   	MOV	EDI,LC7
   642 00000647 89 C1                           	MOV	ECX,EAX
   643 00000649 F3                              	REPE
   644 0000064A A6                              	CMPSB
   645 0000064B 0F 84 000000F5                  	JE	L146
   646 00000651 B8 00000004                     	MOV	EAX,4
   647 00000656 8B 75 E8                        	MOV	ESI,DWORD [-24+EBP]
   648 00000659 FC                              	CLD
   649 0000065A BF [00000020]                   	MOV	EDI,LC8
   650 0000065F 89 C1                           	MOV	ECX,EAX
   651 00000661 F3                              	REPE
   652 00000662 A6                              	CMPSB
   653 00000663 0F 84 000000C2                  	JE	L147
   654 00000669 B8 00000006                     	MOV	EAX,6
   655 0000066E 8B 75 E8                        	MOV	ESI,DWORD [-24+EBP]
   656 00000671 FC                              	CLD
   657 00000672 BF [00000025]                   	MOV	EDI,LC9
   658 00000677 89 C1                           	MOV	ECX,EAX
   659 00000679 F3                              	REPE
   660 0000067A A6                              	CMPSB
   661 0000067B 0F 84 0000008F                  	JE	L148
   662 00000681 B8 00000005                     	MOV	EAX,5
   663 00000686 8B 75 E8                        	MOV	ESI,DWORD [-24+EBP]
   664 00000689 FC                              	CLD
   665 0000068A BF [0000002C]                   	MOV	EDI,LC10
   666 0000068F 89 C1                           	MOV	ECX,EAX
   667 00000691 F3                              	REPE
   668 00000692 A6                              	CMPSB
   669 00000693 74 60                           	JE	L149
   670 00000695 B8 00000009                     	MOV	EAX,9
   671 0000069A 8B 75 E8                        	MOV	ESI,DWORD [-24+EBP]
   672 0000069D FC                              	CLD
   673 0000069E BF [00000032]                   	MOV	EDI,LC11
   674 000006A3 89 C1                           	MOV	ECX,EAX
   675 000006A5 F3                              	REPE
   676 000006A6 A6                              	CMPSB
   677 000006A7 74 37                           	JE	L150
   678 000006A9 8B 4D E8                        	MOV	ECX,DWORD [-24+EBP]
   679 000006AC 80 39 00                        	CMP	BYTE [ECX],0
   680 000006AF 75 08                           	JNE	L151
   681 000006B1                                 L115:
   682 000006B1 8D 65 F4                        	LEA	ESP,DWORD [-12+EBP]
   683 000006B4 5B                              	POP	EBX
   684 000006B5 5E                              	POP	ESI
   685 000006B6 5F                              	POP	EDI
   686 000006B7 5D                              	POP	EBP
   687 000006B8 C3                              	RET
   688 000006B9                                 L151:
   689 000006B9 51                              	PUSH	ECX
   690 000006BA FF 75 F0                        	PUSH	DWORD [-16+EBP]
   691 000006BD 53                              	PUSH	EBX
   692 000006BE E8 000006A9                     	CALL	_cmd_app
   693 000006C3 83 C4 0C                        	ADD	ESP,12
   694 000006C6 85 C0                           	TEST	EAX,EAX
   695 000006C8 75 E7                           	JNE	L115
   696 000006CA C7 45 0C [0000003C]             	MOV	DWORD [12+EBP],LC12
   697 000006D1 89 5D 08                        	MOV	DWORD [8+EBP],EBX
   698 000006D4 8D 65 F4                        	LEA	ESP,DWORD [-12+EBP]
   699 000006D7 5B                              	POP	EBX
   700 000006D8 5E                              	POP	ESI
   701 000006D9 5F                              	POP	EDI
   702 000006DA 5D                              	POP	EBP
   703 000006DB E9 FFFFFE36                     	JMP	_cons_putstr0
   704 000006E0                                 L150:
   705 000006E0 8B 45 E8                        	MOV	EAX,DWORD [-24+EBP]
   706 000006E3 89 5D 08                        	MOV	DWORD [8+EBP],EBX
   707 000006E6 89 45 0C                        	MOV	DWORD [12+EBP],EAX
   708 000006E9 8D 65 F4                        	LEA	ESP,DWORD [-12+EBP]
   709 000006EC 5B                              	POP	EBX
   710 000006ED 5E                              	POP	ESI
   711 000006EE 5F                              	POP	EDI
   712 000006EF 5D                              	POP	EBP
   713 000006F0 E9 00000639                     	JMP	_cmd_langmode
   714 000006F5                                 L149:
   715 000006F5 8B 45 EC                        	MOV	EAX,DWORD [-20+EBP]
   716 000006F8 8B 4D E8                        	MOV	ECX,DWORD [-24+EBP]
   717 000006FB 89 45 10                        	MOV	DWORD [16+EBP],EAX
   718 000006FE 89 4D 0C                        	MOV	DWORD [12+EBP],ECX
   719 00000701 89 5D 08                        	MOV	DWORD [8+EBP],EBX
   720 00000704 8D 65 F4                        	LEA	ESP,DWORD [-12+EBP]
   721 00000707 5B                              	POP	EBX
   722 00000708 5E                              	POP	ESI
   723 00000709 5F                              	POP	EDI
   724 0000070A 5D                              	POP	EBP
   725 0000070B E9 000005BA                     	JMP	_cmd_ncst
   726 00000710                                 L148:
   727 00000710 8B 45 EC                        	MOV	EAX,DWORD [-20+EBP]
   728 00000713 8B 4D E8                        	MOV	ECX,DWORD [-24+EBP]
   729 00000716 89 45 10                        	MOV	DWORD [16+EBP],EAX
   730 00000719 89 4D 0C                        	MOV	DWORD [12+EBP],ECX
   731 0000071C 89 5D 08                        	MOV	DWORD [8+EBP],EBX
   732 0000071F 8D 65 F4                        	LEA	ESP,DWORD [-12+EBP]
   733 00000722 5B                              	POP	EBX
   734 00000723 5E                              	POP	ESI
   735 00000724 5F                              	POP	EDI
   736 00000725 5D                              	POP	EBP
   737 00000726 E9 00000515                     	JMP	_cmd_start
   738 0000072B                                 L147:
   739 0000072B 8B 45 F0                        	MOV	EAX,DWORD [-16+EBP]
   740 0000072E 8B 4D E8                        	MOV	ECX,DWORD [-24+EBP]
   741 00000731 89 45 10                        	MOV	DWORD [16+EBP],EAX
   742 00000734 89 4D 0C                        	MOV	DWORD [12+EBP],ECX
   743 00000737 89 5D 08                        	MOV	DWORD [8+EBP],EBX
   744 0000073A 8D 65 F4                        	LEA	ESP,DWORD [-12+EBP]
   745 0000073D 5B                              	POP	EBX
   746 0000073E 5E                              	POP	ESI
   747 0000073F 5F                              	POP	EDI
   748 00000740 5D                              	POP	EBP
   749 00000741 E9 000004C2                     	JMP	_cmd_del
   750 00000746                                 L146:
   751 00000746 8B 45 F0                        	MOV	EAX,DWORD [-16+EBP]
   752 00000749 8B 4D E8                        	MOV	ECX,DWORD [-24+EBP]
   753 0000074C 89 45 10                        	MOV	DWORD [16+EBP],EAX
   754 0000074F 89 4D 0C                        	MOV	DWORD [12+EBP],ECX
   755 00000752 89 5D 08                        	MOV	DWORD [8+EBP],EBX
   756 00000755 8D 65 F4                        	LEA	ESP,DWORD [-12+EBP]
   757 00000758 5B                              	POP	EBX
   758 00000759 5E                              	POP	ESI
   759 0000075A 5F                              	POP	EDI
   760 0000075B 5D                              	POP	EBP
   761 0000075C E9 000003A6                     	JMP	_cmd_cd
   762 00000761                                 L145:
   763 00000761 89 5D 08                        	MOV	DWORD [8+EBP],EBX
   764 00000764 8D 65 F4                        	LEA	ESP,DWORD [-12+EBP]
   765 00000767 5B                              	POP	EBX
   766 00000768 5E                              	POP	ESI
   767 00000769 5F                              	POP	EDI
   768 0000076A 5D                              	POP	EBP
   769 0000076B E9 0000031E                     	JMP	_cmd_exit
   770 00000770                                 L144:
   771 00000770 8D 65 F4                        	LEA	ESP,DWORD [-12+EBP]
   772 00000773 5B                              	POP	EBX
   773 00000774 5E                              	POP	ESI
   774 00000775 5F                              	POP	EDI
   775 00000776 5D                              	POP	EBP
   776 00000777 E9 0000027F                     	JMP	_cmd_task
   777 0000077C                                 L143:
   778 0000077C 89 5D 08                        	MOV	DWORD [8+EBP],EBX
   779 0000077F 8D 65 F4                        	LEA	ESP,DWORD [-12+EBP]
   780 00000782 5B                              	POP	EBX
   781 00000783 5E                              	POP	ESI
   782 00000784 5F                              	POP	EDI
   783 00000785 5D                              	POP	EBP
   784 00000786 E9 000001F7                     	JMP	_cmd_pwd
   785 0000078B                                 L142:
   786 0000078B 8B 45 F0                        	MOV	EAX,DWORD [-16+EBP]
   787 0000078E 89 5D 08                        	MOV	DWORD [8+EBP],EBX
   788 00000791 89 45 0C                        	MOV	DWORD [12+EBP],EAX
   789 00000794 8D 65 F4                        	LEA	ESP,DWORD [-12+EBP]
   790 00000797 5B                              	POP	EBX
   791 00000798 5E                              	POP	ESI
   792 00000799 5F                              	POP	EDI
   793 0000079A 5D                              	POP	EBP
   794 0000079B E9 000000BF                     	JMP	_cmd_dir
   795 000007A0                                 L141:
   796 000007A0 89 5D 08                        	MOV	DWORD [8+EBP],EBX
   797 000007A3 8D 65 F4                        	LEA	ESP,DWORD [-12+EBP]
   798 000007A6 5B                              	POP	EBX
   799 000007A7 5E                              	POP	ESI
   800 000007A8 5F                              	POP	EDI
   801 000007A9 5D                              	POP	EBP
   802 000007AA EB 53                           	JMP	_cmd_cls
   803 000007AC                                 L140:
   804 000007AC 8B 45 EC                        	MOV	EAX,DWORD [-20+EBP]
   805 000007AF 89 5D 08                        	MOV	DWORD [8+EBP],EBX
   806 000007B2 89 45 0C                        	MOV	DWORD [12+EBP],EAX
   807 000007B5 8D 65 F4                        	LEA	ESP,DWORD [-12+EBP]
   808 000007B8 5B                              	POP	EBX
   809 000007B9 5E                              	POP	ESI
   810 000007BA 5F                              	POP	EDI
   811 000007BB 5D                              	POP	EBP
   812 000007BC EB 00                           	JMP	_cmd_mem
   813                                          [SECTION .data]
   814 0000004B                                 LC13:
   815 0000004B 74 6F 74 61 6C 20 20 20 25 64   	DB	"total   %dMB",0x0A,"free %dKB",0x0A,0x0A,0x00
       00000055 4D 42 0A 66 72 65 65 20 25 64 
       0000005F 4B 42 0A 0A 00 
   816                                          [SECTION .text]
   817 000007BE                                 	GLOBAL	_cmd_mem
   818 000007BE                                 _cmd_mem:
   819 000007BE 55                              	PUSH	EBP
   820 000007BF 89 E5                           	MOV	EBP,ESP
   821 000007C1 53                              	PUSH	EBX
   822 000007C2 83 EC 40                        	SUB	ESP,64
   823 000007C5 68 003C0000                     	PUSH	3932160
   824 000007CA E8 [00000000]                   	CALL	_memman_total
   825 000007CF BA 00100000                     	MOV	EDX,1048576
   826 000007D4 C1 E8 0A                        	SHR	EAX,10
   827 000007D7 89 D3                           	MOV	EBX,EDX
   828 000007D9 89 04 24                        	MOV	DWORD [ESP],EAX
   829 000007DC 8B 45 0C                        	MOV	EAX,DWORD [12+EBP]
   830 000007DF 99                              	CDQ
   831 000007E0 F7 FB                           	IDIV	EBX
   832 000007E2 50                              	PUSH	EAX
   833 000007E3 8D 5D BC                        	LEA	EBX,DWORD [-68+EBP]
   834 000007E6 68 [0000004B]                   	PUSH	LC13
   835 000007EB 53                              	PUSH	EBX
   836 000007EC E8 [00000000]                   	CALL	_sprintf
   837 000007F1 53                              	PUSH	EBX
   838 000007F2 FF 75 08                        	PUSH	DWORD [8+EBP]
   839 000007F5 E8 FFFFFD1C                     	CALL	_cons_putstr0
   840 000007FA 8B 5D FC                        	MOV	EBX,DWORD [-4+EBP]
   841 000007FD C9                              	LEAVE
   842 000007FE C3                              	RET
   843 000007FF                                 	GLOBAL	_cmd_cls
   844 000007FF                                 _cmd_cls:
   845 000007FF 55                              	PUSH	EBP
   846 00000800 89 E5                           	MOV	EBP,ESP
   847 00000802 57                              	PUSH	EDI
   848 00000803 56                              	PUSH	ESI
   849 00000804 8B 45 08                        	MOV	EAX,DWORD [8+EBP]
   850 00000807 53                              	PUSH	EBX
   851 00000808 BB 0000001C                     	MOV	EBX,28
   852 0000080D 8B 08                           	MOV	ECX,DWORD [EAX]
   853 0000080F                                 L163:
   854 0000080F BA 00000008                     	MOV	EDX,8
   855 00000814 8B 79 04                        	MOV	EDI,DWORD [4+ECX]
   856 00000817 8B 31                           	MOV	ESI,DWORD [ECX]
   857 00000819                                 L162:
   858 00000819 89 D8                           	MOV	EAX,EBX
   859 0000081B 0F AF C7                        	IMUL	EAX,EDI
   860 0000081E 8D 04 10                        	LEA	EAX,DWORD [EAX+EDX*1]
   861 00000821 42                              	INC	EDX
   862 00000822 81 FA 000000F7                  	CMP	EDX,247
   863 00000828 66 C7 04 46 0000                	MOV	WORD [ESI+EAX*2],0
   864 0000082E 7E E9                           	JLE	L162
   865 00000830 43                              	INC	EBX
   866 00000831 81 FB 0000009B                  	CMP	EBX,155
   867 00000837 7E D6                           	JLE	L163
   868 00000839 68 0000009C                     	PUSH	156
   869 0000083E 68 000000F8                     	PUSH	248
   870 00000843 6A 1C                           	PUSH	28
   871 00000845 6A 08                           	PUSH	8
   872 00000847 51                              	PUSH	ECX
   873 00000848 E8 [00000000]                   	CALL	_sheet_refresh
   874 0000084D 8B 45 08                        	MOV	EAX,DWORD [8+EBP]
   875 00000850 C7 40 08 0000001C               	MOV	DWORD [8+EAX],28
   876 00000857 8D 65 F4                        	LEA	ESP,DWORD [-12+EBP]
   877 0000085A 5B                              	POP	EBX
   878 0000085B 5E                              	POP	ESI
   879 0000085C 5F                              	POP	EDI
   880 0000085D 5D                              	POP	EBP
   881 0000085E C3                              	RET
   882                                          [SECTION .data]
   883 00000064                                 LC14:
   884 00000064 2F 00                           	DB	"/",0x00
   885                                          [SECTION .text]
   886 0000085F                                 	GLOBAL	_cmd_dir
   887 0000085F                                 _cmd_dir:
   888 0000085F 55                              	PUSH	EBP
   889 00000860 B9 00000002                     	MOV	ECX,2
   890 00000865 89 E5                           	MOV	EBP,ESP
   891 00000867 57                              	PUSH	EDI
   892 00000868 56                              	PUSH	ESI
   893 00000869 BF [00000064]                   	MOV	EDI,LC14
   894 0000086E 53                              	PUSH	EBX
   895 0000086F BE [00000000]                   	MOV	ESI,_cpath
   896 00000874 FC                              	CLD
   897 00000875 81 EC 00000208                  	SUB	ESP,520
   898 0000087B C7 85 FFFFFDF0 00000000         	MOV	DWORD [-528+EBP],0
   899 00000885 F3                              	REPE
   900 00000886 A6                              	CMPSB
   901 00000887 0F 85 000000BB                  	JNE	L169
   902 0000088D BB 00102600                     	MOV	EBX,1058304
   903 00000892                                 L192:
   904 00000892 C7 85 FFFFFDF0 00000001         	MOV	DWORD [-528+EBP],1
   905 0000089C                                 L170:
   906 0000089C 83 BD FFFFFDF0 01               	CMP	DWORD [-528+EBP],1
   907 000008A3 74 7D                           	JE	L193
   908 000008A5 0F B7 5B 1A                     	MOVZX	EBX,WORD [26+EBX]
   909 000008A9 31 F6                           	XOR	ESI,ESI
   910 000008AB                                 L189:
   911 000008AB F7 C6 0000000F                  	TEST	ESI,15
   912 000008B1 75 2B                           	JNE	L186
   913 000008B3 81 FB 00000FF6                  	CMP	EBX,4086
   914 000008B9 7F 57                           	JG	L181
   915 000008BB 68 00103E00                     	PUSH	1064448
   916 000008C0 8D 85 FFFFFDF4                  	LEA	EAX,DWORD [-524+EBP]
   917 000008C6 FF 75 0C                        	PUSH	DWORD [12+EBP]
   918 000008C9 50                              	PUSH	EAX
   919 000008CA 68 00000200                     	PUSH	512
   920 000008CF 53                              	PUSH	EBX
   921 000008D0 E8 [00000000]                   	CALL	_file_loadfile
   922 000008D5 83 C4 14                        	ADD	ESP,20
   923 000008D8 8B 45 0C                        	MOV	EAX,DWORD [12+EBP]
   924 000008DB 8B 1C 98                        	MOV	EBX,DWORD [EAX+EBX*4]
   925 000008DE                                 L186:
   926 000008DE BA 00000010                     	MOV	EDX,16
   927 000008E3 89 F0                           	MOV	EAX,ESI
   928 000008E5 89 D1                           	MOV	ECX,EDX
   929 000008E7 99                              	CDQ
   930 000008E8 F7 F9                           	IDIV	ECX
   931 000008EA C1 E2 05                        	SAL	EDX,5
   932 000008ED 80 BC 15 FFFFFDF4 00            	CMP	BYTE [-524+EBP+EDX*1],0
   933 000008F5 74 1B                           	JE	L181
   934 000008F7 8D 84 2A FFFFFDF4               	LEA	EAX,DWORD [-524+EDX+EBP*1]
   935 000008FE 46                              	INC	ESI
   936 000008FF 50                              	PUSH	EAX
   937 00000900 FF 75 08                        	PUSH	DWORD [8+EBP]
   938 00000903 E8 000006BA                     	CALL	_dir_cons
   939 00000908 81 FE 00000FFF                  	CMP	ESI,4095
   940 0000090E 58                              	POP	EAX
   941 0000090F 5A                              	POP	EDX
   942 00000910 7E 99                           	JLE	L189
   943 00000912                                 L181:
   944 00000912 FF 75 08                        	PUSH	DWORD [8+EBP]
   945 00000915 E8 FFFFFAFE                     	CALL	_cons_newline
   946 0000091A                                 L168:
   947 0000091A 8D 65 F4                        	LEA	ESP,DWORD [-12+EBP]
   948 0000091D 5B                              	POP	EBX
   949 0000091E 5E                              	POP	ESI
   950 0000091F 5F                              	POP	EDI
   951 00000920 5D                              	POP	EBP
   952 00000921 C3                              	RET
   953 00000922                                 L193:
   954 00000922 31 F6                           	XOR	ESI,ESI
   955 00000924 31 FF                           	XOR	EDI,EDI
   956 00000926                                 L180:
   957 00000926 80 3C 3B 00                     	CMP	BYTE [EBX+EDI*1],0
   958 0000092A 74 E6                           	JE	L181
   959 0000092C 8D 04 1F                        	LEA	EAX,DWORD [EDI+EBX*1]
   960 0000092F 46                              	INC	ESI
   961 00000930 50                              	PUSH	EAX
   962 00000931 83 C7 20                        	ADD	EDI,32
   963 00000934 FF 75 08                        	PUSH	DWORD [8+EBP]
   964 00000937 E8 00000686                     	CALL	_dir_cons
   965 0000093C 81 FE 000000DF                  	CMP	ESI,223
   966 00000942 59                              	POP	ECX
   967 00000943 58                              	POP	EAX
   968 00000944 7E E0                           	JLE	L180
   969 00000946 EB CA                           	JMP	L181
   970 00000948                                 L169:
   971 00000948 FF 75 0C                        	PUSH	DWORD [12+EBP]
   972 0000094B 68 000000E0                     	PUSH	224
   973 00000950 68 00102600                     	PUSH	1058304
   974 00000955 68 [00000000]                   	PUSH	_cpath
   975 0000095A E8 [00000000]                   	CALL	_file_search2
   976 0000095F 83 C4 10                        	ADD	ESP,16
   977 00000962 89 C3                           	MOV	EBX,EAX
   978 00000964 85 C0                           	TEST	EAX,EAX
   979 00000966 74 B2                           	JE	L168
   980 00000968 8A 40 0B                        	MOV	AL,BYTE [11+EAX]
   981 0000096B 83 E0 10                        	AND	EAX,16
   982 0000096E 84 C0                           	TEST	AL,AL
   983 00000970 74 A8                           	JE	L168
   984 00000972 66 83 7B 1A 00                  	CMP	WORD [26+EBX],0
   985 00000977 0F 85 FFFFFF1F                  	JNE	L170
   986 0000097D E9 FFFFFF10                     	JMP	L192
   987                                          [SECTION .data]
   988 00000066                                 LC15:
   989 00000066 0A 00                           	DB	0x0A,0x00
   990                                          [SECTION .text]
   991 00000982                                 	GLOBAL	_cmd_pwd
   992 00000982                                 _cmd_pwd:
   993 00000982 55                              	PUSH	EBP
   994 00000983 31 C0                           	XOR	EAX,EAX
   995 00000985 89 E5                           	MOV	EBP,ESP
   996 00000987 B9 00000040                     	MOV	ECX,64
   997 0000098C 57                              	PUSH	EDI
   998 0000098D 53                              	PUSH	EBX
   999 0000098E 8D BD FFFFFEF8                  	LEA	EDI,DWORD [-264+EBP]
  1000 00000994 FC                              	CLD
  1001 00000995 81 EC 00000100                  	SUB	ESP,256
  1002 0000099B 8B 5D 08                        	MOV	EBX,DWORD [8+EBP]
  1003 0000099E F3                              	REP
  1004 0000099F AB                              	STOSD
  1005 000009A0 68 000000FF                     	PUSH	255
  1006 000009A5 8D BD FFFFFEF8                  	LEA	EDI,DWORD [-264+EBP]
  1007 000009AB 68 [00000000]                   	PUSH	_cpath
  1008 000009B0 57                              	PUSH	EDI
  1009 000009B1 E8 [00000000]                   	CALL	_strncpy
  1010 000009B6 83 C4 0C                        	ADD	ESP,12
  1011 000009B9 FC                              	CLD
  1012 000009BA 31 C0                           	XOR	EAX,EAX
  1013 000009BC 83 C9 FF                        	OR	ECX,-1
  1014 000009BF F2                              	REPNE
  1015 000009C0 AE                              	SCASB
  1016 000009C1 F7 D1                           	NOT	ECX
  1017 000009C3 8D 41 FF                        	LEA	EAX,DWORD [-1+ECX]
  1018 000009C6 83 F8 01                        	CMP	EAX,1
  1019 000009C9 7E 27                           	JLE	L195
  1020 000009CB C6 84 05 FFFFFEF7 0A            	MOV	BYTE [-265+EBP+EAX*1],10
  1021 000009D3                                 L196:
  1022 000009D3 8D 85 FFFFFEF8                  	LEA	EAX,DWORD [-264+EBP]
  1023 000009D9 50                              	PUSH	EAX
  1024 000009DA 53                              	PUSH	EBX
  1025 000009DB E8 FFFFFB36                     	CALL	_cons_putstr0
  1026 000009E0 68 [00000066]                   	PUSH	LC15
  1027 000009E5 53                              	PUSH	EBX
  1028 000009E6 E8 FFFFFB2B                     	CALL	_cons_putstr0
  1029 000009EB 8D 65 F8                        	LEA	ESP,DWORD [-8+EBP]
  1030 000009EE 5B                              	POP	EBX
  1031 000009EF 5F                              	POP	EDI
  1032 000009F0 5D                              	POP	EBP
  1033 000009F1 C3                              	RET
  1034 000009F2                                 L195:
  1035 000009F2 C6 85 FFFFFEF9 0A               	MOV	BYTE [-263+EBP],10
  1036 000009F9 EB D8                           	JMP	L196
  1037                                          [SECTION .data]
  1038 00000068                                 LC16:
  1039 00000068 25 33 64 20 25 2D 31 35 73 20   	DB	"%3d %-15s   %1d %7d.%02d",0x0A,0x00
       00000072 20 20 25 31 64 20 25 37 64 2E 
       0000007C 25 30 32 64 0A 00 
  1040                                          [SECTION .text]
  1041 000009FB                                 	GLOBAL	_cmd_task
  1042 000009FB                                 _cmd_task:
  1043 000009FB 55                              	PUSH	EBP
  1044 000009FC 89 E5                           	MOV	EBP,ESP
  1045 000009FE 57                              	PUSH	EDI
  1046 000009FF 56                              	PUSH	ESI
  1047 00000A00 53                              	PUSH	EBX
  1048 00000A01 31 DB                           	XOR	EBX,EBX
  1049 00000A03 83 EC 38                        	SUB	ESP,56
  1050 00000A06 A1 [00000000]                   	MOV	EAX,DWORD [_taskctl]
  1051 00000A0B 3B 98 0004F1FC                  	CMP	EBX,DWORD [324092+EAX]
  1052 00000A11 7D 2A                           	JGE	L205
  1053 00000A13 C7 45 C0 00000000               	MOV	DWORD [-64+EBP],0
  1054 00000A1A                                 L203:
  1055 00000A1A 8B 75 C0                        	MOV	ESI,DWORD [-64+EBP]
  1056 00000A1D 01 C6                           	ADD	ESI,EAX
  1057 00000A1F 83 BE 00001000 00               	CMP	DWORD [4096+ESI],0
  1058 00000A26 75 1D                           	JNE	L206
  1059 00000A28                                 L200:
  1060 00000A28 A1 [00000000]                   	MOV	EAX,DWORD [_taskctl]
  1061 00000A2D 43                              	INC	EBX
  1062 00000A2E 81 45 C0 00000140               	ADD	DWORD [-64+EBP],320
  1063 00000A35 3B 98 0004F1FC                  	CMP	EBX,DWORD [324092+EAX]
  1064 00000A3B 7C DD                           	JL	L203
  1065 00000A3D                                 L205:
  1066 00000A3D 8D 65 F4                        	LEA	ESP,DWORD [-12+EBP]
  1067 00000A40 5B                              	POP	EBX
  1068 00000A41 5E                              	POP	ESI
  1069 00000A42 5F                              	POP	EDI
  1070 00000A43 5D                              	POP	EBP
  1071 00000A44 C3                              	RET
  1072 00000A45                                 L206:
  1073 00000A45 FC                              	CLD
  1074 00000A46 31 C0                           	XOR	EAX,EAX
  1075 00000A48 8D 7D C4                        	LEA	EDI,DWORD [-60+EBP]
  1076 00000A4B B9 0000000A                     	MOV	ECX,10
  1077 00000A50 31 D2                           	XOR	EDX,EDX
  1078 00000A52 F3                              	REP
  1079 00000A53 AB                              	STOSD
  1080 00000A54 B9 00000064                     	MOV	ECX,100
  1081 00000A59 8B 86 00001138                  	MOV	EAX,DWORD [4408+ESI]
  1082 00000A5F F7 F1                           	DIV	ECX
  1083 00000A61 52                              	PUSH	EDX
  1084 00000A62 8D 7D C4                        	LEA	EDI,DWORD [-60+EBP]
  1085 00000A65 8B 86 00001138                  	MOV	EAX,DWORD [4408+ESI]
  1086 00000A6B 31 D2                           	XOR	EDX,EDX
  1087 00000A6D F7 F1                           	DIV	ECX
  1088 00000A6F 50                              	PUSH	EAX
  1089 00000A70 8D 86 00001126                  	LEA	EAX,DWORD [4390+ESI]
  1090 00000A76 FF B6 00001004                  	PUSH	DWORD [4100+ESI]
  1091 00000A7C 50                              	PUSH	EAX
  1092 00000A7D 53                              	PUSH	EBX
  1093 00000A7E 68 [00000068]                   	PUSH	LC16
  1094 00000A83 57                              	PUSH	EDI
  1095 00000A84 E8 [00000000]                   	CALL	_sprintf
  1096 00000A89 83 C4 1C                        	ADD	ESP,28
  1097 00000A8C EB 9A                           	JMP	L200
  1098 00000A8E                                 	GLOBAL	_cmd_exit
  1099 00000A8E                                 _cmd_exit:
  1100 00000A8E 55                              	PUSH	EBP
  1101 00000A8F 89 E5                           	MOV	EBP,ESP
  1102 00000A91 57                              	PUSH	EDI
  1103 00000A92 56                              	PUSH	ESI
  1104 00000A93 53                              	PUSH	EBX
  1105 00000A94 53                              	PUSH	EBX
  1106 00000A95 8B 5D 08                        	MOV	EBX,DWORD [8+EBP]
  1107 00000A98 E8 [00000000]                   	CALL	_task_now
  1108 00000A9D 8B 35 00000FE4                  	MOV	ESI,DWORD [4068]
  1109 00000AA3 8B 3D 00000FEC                  	MOV	EDI,DWORD [4076]
  1110 00000AA9 89 45 F0                        	MOV	DWORD [-16+EBP],EAX
  1111 00000AAC 83 3B 00                        	CMP	DWORD [EBX],0
  1112 00000AAF 74 09                           	JE	L208
  1113 00000AB1 FF 73 10                        	PUSH	DWORD [16+EBX]
  1114 00000AB4 E8 [00000000]                   	CALL	_timer_cancel
  1115 00000AB9 59                              	POP	ECX
  1116 00000ABA                                 L208:
  1117 00000ABA 8B 03                           	MOV	EAX,DWORD [EBX]
  1118 00000ABC 85 C0                           	TEST	EAX,EAX
  1119 00000ABE 74 29                           	JE	L209
  1120 00000AC0 29 F0                           	SUB	EAX,ESI
  1121 00000AC2 2D 00000418                     	SUB	EAX,1048
  1122 00000AC7 C1 F8 03                        	SAR	EAX,3
  1123 00000ACA 69 C0 CCCCCCCD                  	IMUL	EAX,EAX,-858993459
  1124 00000AD0 05 00000300                     	ADD	EAX,768
  1125 00000AD5                                 L214:
  1126 00000AD5 50                              	PUSH	EAX
  1127 00000AD6 57                              	PUSH	EDI
  1128 00000AD7 E8 [00000000]                   	CALL	_fifo32_put_io
  1129 00000ADC 58                              	POP	EAX
  1130 00000ADD 5A                              	POP	EDX
  1131 00000ADE                                 L211:
  1132 00000ADE FF 75 F0                        	PUSH	DWORD [-16+EBP]
  1133 00000AE1 E8 [00000000]                   	CALL	_task_sleep
  1134 00000AE6 58                              	POP	EAX
  1135 00000AE7 EB F5                           	JMP	L211
  1136 00000AE9                                 L209:
  1137 00000AE9 8B 45 F0                        	MOV	EAX,DWORD [-16+EBP]
  1138 00000AEC 2B 05 [00000000]                	SUB	EAX,DWORD [_taskctl]
  1139 00000AF2 2D 00000FFC                     	SUB	EAX,4092
  1140 00000AF7 C1 F8 06                        	SAR	EAX,6
  1141 00000AFA 69 C0 CCCCCCCD                  	IMUL	EAX,EAX,-858993459
  1142 00000B00 05 00000400                     	ADD	EAX,1024
  1143 00000B05 EB CE                           	JMP	L214
  1144                                          [SECTION .data]
  1145 00000082                                 LC17:
  1146 00000082 4E 6F 20 73 75 63 68 20 64 69   	DB	"No such directory.",0x0A,0x0A,0x00
       0000008C 72 65 63 74 6F 72 79 2E 0A 0A 
       00000096 00 
  1147                                          [SECTION .text]
  1148 00000B07                                 	GLOBAL	_cmd_cd
  1149 00000B07                                 _cmd_cd:
  1150 00000B07 55                              	PUSH	EBP
  1151 00000B08 89 E5                           	MOV	EBP,ESP
  1152 00000B0A 57                              	PUSH	EDI
  1153 00000B0B 56                              	PUSH	ESI
  1154 00000B0C 53                              	PUSH	EBX
  1155 00000B0D 8D 9D FFFFFEF4                  	LEA	EBX,DWORD [-268+EBP]
  1156 00000B13 81 EC 00000100                  	SUB	ESP,256
  1157 00000B19 8B 45 0C                        	MOV	EAX,DWORD [12+EBP]
  1158 00000B1C 68 00000100                     	PUSH	256
  1159 00000B21 83 C0 03                        	ADD	EAX,3
  1160 00000B24 50                              	PUSH	EAX
  1161 00000B25 53                              	PUSH	EBX
  1162 00000B26 E8 [00000000]                   	CALL	_file_path
  1163 00000B2B 83 C4 0C                        	ADD	ESP,12
  1164 00000B2E 80 BD FFFFFEF4 00               	CMP	BYTE [-268+EBP],0
  1165 00000B35 0F 84 000000BB                  	JE	L222
  1166 00000B3B FC                              	CLD
  1167 00000B3C 89 DE                           	MOV	ESI,EBX
  1168 00000B3E BF [00000064]                   	MOV	EDI,LC14
  1169 00000B43 B9 00000002                     	MOV	ECX,2
  1170 00000B48 F3                              	REPE
  1171 00000B49 A6                              	CMPSB
  1172 00000B4A 0F 92 C0                        	SETB	AL
  1173 00000B4D 0F 97 C2                        	SETA	DL
  1174 00000B50 28 C2                           	SUB	DL,AL
  1175 00000B52 0F BE C2                        	MOVSX	EAX,DL
  1176 00000B55 85 C0                           	TEST	EAX,EAX
  1177 00000B57 75 1B                           	JNE	L217
  1178 00000B59 BF [00000000]                   	MOV	EDI,_cpath
  1179 00000B5E B9 00000040                     	MOV	ECX,64
  1180 00000B63 F3                              	REP
  1181 00000B64 AB                              	STOSD
  1182 00000B65 C6 05 [00000000] 2F             	MOV	BYTE [_cpath],47
  1183 00000B6C                                 L215:
  1184 00000B6C 8D 65 F4                        	LEA	ESP,DWORD [-12+EBP]
  1185 00000B6F 5B                              	POP	EBX
  1186 00000B70 5E                              	POP	ESI
  1187 00000B71 5F                              	POP	EDI
  1188 00000B72 5D                              	POP	EBP
  1189 00000B73 C3                              	RET
  1190 00000B74                                 L217:
  1191 00000B74 FF 75 10                        	PUSH	DWORD [16+EBP]
  1192 00000B77 68 000000E0                     	PUSH	224
  1193 00000B7C 68 00102600                     	PUSH	1058304
  1194 00000B81 53                              	PUSH	EBX
  1195 00000B82 E8 [00000000]                   	CALL	_file_search2
  1196 00000B87 83 C4 10                        	ADD	ESP,16
  1197 00000B8A 85 C0                           	TEST	EAX,EAX
  1198 00000B8C 74 0A                           	JE	L219
  1199 00000B8E 8A 40 0B                        	MOV	AL,BYTE [11+EAX]
  1200 00000B91 83 E0 10                        	AND	EAX,16
  1201 00000B94 84 C0                           	TEST	AL,AL
  1202 00000B96 75 11                           	JNE	L223
  1203 00000B98                                 L219:
  1204 00000B98 68 [00000082]                   	PUSH	LC17
  1205 00000B9D FF 75 08                        	PUSH	DWORD [8+EBP]
  1206 00000BA0 E8 FFFFF971                     	CALL	_cons_putstr0
  1207 00000BA5 5E                              	POP	ESI
  1208 00000BA6 5F                              	POP	EDI
  1209 00000BA7 EB C3                           	JMP	L215
  1210 00000BA9                                 L223:
  1211 00000BA9 FC                              	CLD
  1212 00000BAA 31 C0                           	XOR	EAX,EAX
  1213 00000BAC BF [00000000]                   	MOV	EDI,_cpath
  1214 00000BB1 B9 00000040                     	MOV	ECX,64
  1215 00000BB6 F3                              	REP
  1216 00000BB7 AB                              	STOSD
  1217 00000BB8 53                              	PUSH	EBX
  1218 00000BB9 BF [00000000]                   	MOV	EDI,_cpath
  1219 00000BBE 68 [00000000]                   	PUSH	_cpath
  1220 00000BC3 E8 [00000000]                   	CALL	_strcpy
  1221 00000BC8 5B                              	POP	EBX
  1222 00000BC9 83 CA FF                        	OR	EDX,-1
  1223 00000BCC 31 C0                           	XOR	EAX,EAX
  1224 00000BCE FC                              	CLD
  1225 00000BCF 89 D1                           	MOV	ECX,EDX
  1226 00000BD1 5E                              	POP	ESI
  1227 00000BD2 F2                              	REPNE
  1228 00000BD3 AE                              	SCASB
  1229 00000BD4 F7 D1                           	NOT	ECX
  1230 00000BD6 80 B9 [FFFFFFFE] 2F             	CMP	BYTE [_cpath-2+ECX],47
  1231 00000BDD 74 8D                           	JE	L215
  1232 00000BDF BF [00000000]                   	MOV	EDI,_cpath
  1233 00000BE4 89 D1                           	MOV	ECX,EDX
  1234 00000BE6 F2                              	REPNE
  1235 00000BE7 AE                              	SCASB
  1236 00000BE8 F7 D1                           	NOT	ECX
  1237 00000BEA C6 81 [FFFFFFFF] 2F             	MOV	BYTE [_cpath-1+ECX],47
  1238 00000BF1 E9 FFFFFF76                     	JMP	L215
  1239 00000BF6                                 L222:
  1240 00000BF6 68 [00000082]                   	PUSH	LC17
  1241 00000BFB FF 75 08                        	PUSH	DWORD [8+EBP]
  1242 00000BFE E8 FFFFF913                     	CALL	_cons_putstr0
  1243 00000C03 E9 FFFFFF64                     	JMP	L215
  1244                                          [SECTION .data]
  1245 00000097                                 LC18:
  1246 00000097 4E 6F 20 73 75 63 68 20 66 69   	DB	"No such file.",0x0A,0x0A,0x00
       000000A1 6C 65 2E 0A 0A 00 
  1247                                          [SECTION .text]
  1248 00000C08                                 	GLOBAL	_cmd_del
  1249 00000C08                                 _cmd_del:
  1250 00000C08 55                              	PUSH	EBP
  1251 00000C09 89 E5                           	MOV	EBP,ESP
  1252 00000C0B 53                              	PUSH	EBX
  1253 00000C0C 8B 5D 08                        	MOV	EBX,DWORD [8+EBP]
  1254 00000C0F FF 75 10                        	PUSH	DWORD [16+EBP]
  1255 00000C12 8B 45 0C                        	MOV	EAX,DWORD [12+EBP]
  1256 00000C15 83 C0 04                        	ADD	EAX,4
  1257 00000C18 50                              	PUSH	EAX
  1258 00000C19 E8 000015F6                     	CALL	_hrb_api_remove
  1259 00000C1E 5A                              	POP	EDX
  1260 00000C1F 59                              	POP	ECX
  1261 00000C20 40                              	INC	EAX
  1262 00000C21 74 05                           	JE	L227
  1263 00000C23                                 L224:
  1264 00000C23 8B 5D FC                        	MOV	EBX,DWORD [-4+EBP]
  1265 00000C26 C9                              	LEAVE
  1266 00000C27 C3                              	RET
  1267 00000C28                                 L227:
  1268 00000C28 83 3B 00                        	CMP	DWORD [EBX],0
  1269 00000C2B 74 F6                           	JE	L224
  1270 00000C2D 89 5D 08                        	MOV	DWORD [8+EBP],EBX
  1271 00000C30 8B 5D FC                        	MOV	EBX,DWORD [-4+EBP]
  1272 00000C33 C7 45 0C [00000097]             	MOV	DWORD [12+EBP],LC18
  1273 00000C3A C9                              	LEAVE
  1274 00000C3B E9 FFFFF8D6                     	JMP	_cons_putstr0
  1275 00000C40                                 	GLOBAL	_cmd_start
  1276 00000C40                                 _cmd_start:
  1277 00000C40 55                              	PUSH	EBP
  1278 00000C41 89 E5                           	MOV	EBP,ESP
  1279 00000C43 57                              	PUSH	EDI
  1280 00000C44 56                              	PUSH	ESI
  1281 00000C45 53                              	PUSH	EBX
  1282 00000C46 51                              	PUSH	ECX
  1283 00000C47 51                              	PUSH	ECX
  1284 00000C48 8B 45 08                        	MOV	EAX,DWORD [8+EBP]
  1285 00000C4B 8B 7D 0C                        	MOV	EDI,DWORD [12+EBP]
  1286 00000C4E 8B 35 00000FE4                  	MOV	ESI,DWORD [4068]
  1287 00000C54 89 45 F0                        	MOV	DWORD [-16+EBP],EAX
  1288 00000C57 FF 75 10                        	PUSH	DWORD [16+EBP]
  1289 00000C5A 56                              	PUSH	ESI
  1290 00000C5B E8 [00000000]                   	CALL	_open_console
  1291 00000C60 89 C3                           	MOV	EBX,EAX
  1292 00000C62 8B 40 24                        	MOV	EAX,DWORD [36+EAX]
  1293 00000C65 83 C0 10                        	ADD	EAX,16
  1294 00000C68 89 45 EC                        	MOV	DWORD [-20+EBP],EAX
  1295 00000C6B 6A 04                           	PUSH	4
  1296 00000C6D 6A 20                           	PUSH	32
  1297 00000C6F 53                              	PUSH	EBX
  1298 00000C70 E8 [00000000]                   	CALL	_sheet_slide
  1299 00000C75 FF 76 10                        	PUSH	DWORD [16+ESI]
  1300 00000C78 53                              	PUSH	EBX
  1301 00000C79 BB 00000006                     	MOV	EBX,6
  1302 00000C7E E8 [00000000]                   	CALL	_sheet_updown
  1303 00000C83 83 C4 1C                        	ADD	ESP,28
  1304 00000C86 80 7F 06 00                     	CMP	BYTE [6+EDI],0
  1305 00000C8A 75 21                           	JNE	L233
  1306 00000C8C                                 L235:
  1307 00000C8C 68 0000010A                     	PUSH	266
  1308 00000C91 FF 75 EC                        	PUSH	DWORD [-20+EBP]
  1309 00000C94 E8 [00000000]                   	CALL	_fifo32_put_io
  1310 00000C99 8B 45 F0                        	MOV	EAX,DWORD [-16+EBP]
  1311 00000C9C 5B                              	POP	EBX
  1312 00000C9D 5E                              	POP	ESI
  1313 00000C9E 89 45 08                        	MOV	DWORD [8+EBP],EAX
  1314 00000CA1 8D 65 F4                        	LEA	ESP,DWORD [-12+EBP]
  1315 00000CA4 5B                              	POP	EBX
  1316 00000CA5 5E                              	POP	ESI
  1317 00000CA6 5F                              	POP	EDI
  1318 00000CA7 5D                              	POP	EBP
  1319 00000CA8 E9 FFFFF76B                     	JMP	_cons_newline
  1320 00000CAD                                 L233:
  1321 00000CAD 0F BE 04 3B                     	MOVSX	EAX,BYTE [EBX+EDI*1]
  1322 00000CB1 05 00000100                     	ADD	EAX,256
  1323 00000CB6 43                              	INC	EBX
  1324 00000CB7 50                              	PUSH	EAX
  1325 00000CB8 FF 75 EC                        	PUSH	DWORD [-20+EBP]
  1326 00000CBB E8 [00000000]                   	CALL	_fifo32_put_io
  1327 00000CC0 80 3C 3B 00                     	CMP	BYTE [EBX+EDI*1],0
  1328 00000CC4 58                              	POP	EAX
  1329 00000CC5 5A                              	POP	EDX
  1330 00000CC6 75 E5                           	JNE	L233
  1331 00000CC8 EB C2                           	JMP	L235
  1332 00000CCA                                 	GLOBAL	_cmd_ncst
  1333 00000CCA                                 _cmd_ncst:
  1334 00000CCA 55                              	PUSH	EBP
  1335 00000CCB 89 E5                           	MOV	EBP,ESP
  1336 00000CCD 57                              	PUSH	EDI
  1337 00000CCE 56                              	PUSH	ESI
  1338 00000CCF BE 00000005                     	MOV	ESI,5
  1339 00000CD4 53                              	PUSH	EBX
  1340 00000CD5 50                              	PUSH	EAX
  1341 00000CD6 8B 45 08                        	MOV	EAX,DWORD [8+EBP]
  1342 00000CD9 8B 5D 0C                        	MOV	EBX,DWORD [12+EBP]
  1343 00000CDC 89 45 F0                        	MOV	DWORD [-16+EBP],EAX
  1344 00000CDF FF 75 10                        	PUSH	DWORD [16+EBP]
  1345 00000CE2 6A 00                           	PUSH	0
  1346 00000CE4 E8 [00000000]                   	CALL	_open_constask
  1347 00000CE9 59                              	POP	ECX
  1348 00000CEA 80 7B 05 00                     	CMP	BYTE [5+EBX],0
  1349 00000CEE 8D 78 10                        	LEA	EDI,DWORD [16+EAX]
  1350 00000CF1 58                              	POP	EAX
  1351 00000CF2 75 1F                           	JNE	L241
  1352 00000CF4                                 L243:
  1353 00000CF4 68 0000010A                     	PUSH	266
  1354 00000CF9 57                              	PUSH	EDI
  1355 00000CFA E8 [00000000]                   	CALL	_fifo32_put_io
  1356 00000CFF 8B 45 F0                        	MOV	EAX,DWORD [-16+EBP]
  1357 00000D02 5B                              	POP	EBX
  1358 00000D03 5E                              	POP	ESI
  1359 00000D04 89 45 08                        	MOV	DWORD [8+EBP],EAX
  1360 00000D07 8D 65 F4                        	LEA	ESP,DWORD [-12+EBP]
  1361 00000D0A 5B                              	POP	EBX
  1362 00000D0B 5E                              	POP	ESI
  1363 00000D0C 5F                              	POP	EDI
  1364 00000D0D 5D                              	POP	EBP
  1365 00000D0E E9 FFFFF705                     	JMP	_cons_newline
  1366 00000D13                                 L241:
  1367 00000D13 0F BE 04 1E                     	MOVSX	EAX,BYTE [ESI+EBX*1]
  1368 00000D17 05 00000100                     	ADD	EAX,256
  1369 00000D1C 46                              	INC	ESI
  1370 00000D1D 50                              	PUSH	EAX
  1371 00000D1E 57                              	PUSH	EDI
  1372 00000D1F E8 [00000000]                   	CALL	_fifo32_put_io
  1373 00000D24 80 3C 1E 00                     	CMP	BYTE [ESI+EBX*1],0
  1374 00000D28 58                              	POP	EAX
  1375 00000D29 5A                              	POP	EDX
  1376 00000D2A 75 E7                           	JNE	L241
  1377 00000D2C EB C6                           	JMP	L243
  1378                                          [SECTION .data]
  1379 000000A7                                 LC19:
  1380 000000A7 6D 6F 64 65 20 6E 75 6D 62 65   	DB	"mode number error.",0x0A,0x00
       000000B1 72 20 65 72 72 6F 72 2E 0A 00 
  1381                                          [SECTION .text]
  1382 00000D2E                                 	GLOBAL	_cmd_langmode
  1383 00000D2E                                 _cmd_langmode:
  1384 00000D2E 55                              	PUSH	EBP
  1385 00000D2F 89 E5                           	MOV	EBP,ESP
  1386 00000D31 56                              	PUSH	ESI
  1387 00000D32 53                              	PUSH	EBX
  1388 00000D33 8B 5D 0C                        	MOV	EBX,DWORD [12+EBP]
  1389 00000D36 8B 75 08                        	MOV	ESI,DWORD [8+EBP]
  1390 00000D39 E8 [00000000]                   	CALL	_task_now
  1391 00000D3E 8A 53 09                        	MOV	DL,BYTE [9+EBX]
  1392 00000D41 83 EA 30                        	SUB	EDX,48
  1393 00000D44 80 FA 02                        	CMP	DL,2
  1394 00000D47 77 14                           	JA	L245
  1395 00000D49 88 90 00000128                  	MOV	BYTE [296+EAX],DL
  1396 00000D4F                                 L246:
  1397 00000D4F 89 75 08                        	MOV	DWORD [8+EBP],ESI
  1398 00000D52 8D 65 F8                        	LEA	ESP,DWORD [-8+EBP]
  1399 00000D55 5B                              	POP	EBX
  1400 00000D56 5E                              	POP	ESI
  1401 00000D57 5D                              	POP	EBP
  1402 00000D58 E9 FFFFF6BB                     	JMP	_cons_newline
  1403 00000D5D                                 L245:
  1404 00000D5D 68 [000000A7]                   	PUSH	LC19
  1405 00000D62 56                              	PUSH	ESI
  1406 00000D63 E8 FFFFF7AE                     	CALL	_cons_putstr0
  1407 00000D68 58                              	POP	EAX
  1408 00000D69 5A                              	POP	EDX
  1409 00000D6A EB E3                           	JMP	L246
  1410                                          [SECTION .data]
  1411 000000BB                                 LC20:
  1412 000000BB 48 61 72 69 00                  	DB	"Hari",0x00
  1413 000000C0                                 LC21:
  1414 000000C0 2E 68 72 62 20 66 69 6C 65 20   	DB	".hrb file format error.",0x0A,0x00
       000000CA 66 6F 72 6D 61 74 20 65 72 72 
       000000D4 6F 72 2E 0A 00 
  1415                                          [SECTION .text]
  1416 00000D6C                                 	GLOBAL	_cmd_app
  1417 00000D6C                                 _cmd_app:
  1418 00000D6C 55                              	PUSH	EBP
  1419 00000D6D 89 E5                           	MOV	EBP,ESP
  1420 00000D6F 57                              	PUSH	EDI
  1421 00000D70 56                              	PUSH	ESI
  1422 00000D71 53                              	PUSH	EBX
  1423 00000D72 31 DB                           	XOR	EBX,EBX
  1424 00000D74 83 EC 38                        	SUB	ESP,56
  1425 00000D77 8B 75 10                        	MOV	ESI,DWORD [16+EBP]
  1426 00000D7A E8 [00000000]                   	CALL	_task_now
  1427 00000D7F 89 45 BC                        	MOV	DWORD [-68+EBP],EAX
  1428 00000D82                                 L253:
  1429 00000D82 8A 04 33                        	MOV	AL,BYTE [EBX+ESI*1]
  1430 00000D85 3C 20                           	CMP	AL,32
  1431 00000D87 7E 0A                           	JLE	L249
  1432 00000D89 88 44 1D D4                     	MOV	BYTE [-44+EBP+EBX*1],AL
  1433 00000D8D 43                              	INC	EBX
  1434 00000D8E 83 FB 0C                        	CMP	EBX,12
  1435 00000D91 7E EF                           	JLE	L253
  1436 00000D93                                 L249:
  1437 00000D93 C6 44 1D D4 00                  	MOV	BYTE [-44+EBP+EBX*1],0
  1438 00000D98 FF 75 0C                        	PUSH	DWORD [12+EBP]
  1439 00000D9B 68 00102600                     	PUSH	1058304
  1440 00000DA0 8D 45 D4                        	LEA	EAX,DWORD [-44+EBP]
  1441 00000DA3 50                              	PUSH	EAX
  1442 00000DA4 E8 000002B1                     	CALL	_app_search
  1443 00000DA9 83 C4 0C                        	ADD	ESP,12
  1444 00000DAC 89 C2                           	MOV	EDX,EAX
  1445 00000DAE 85 C0                           	TEST	EAX,EAX
  1446 00000DB0 74 06                           	JE	L254
  1447 00000DB2 F6 40 0B 18                     	TEST	BYTE [11+EAX],24
  1448 00000DB6 74 0A                           	JE	L289
  1449 00000DB8                                 L254:
  1450 00000DB8 31 C0                           	XOR	EAX,EAX
  1451 00000DBA                                 L247:
  1452 00000DBA 8D 65 F4                        	LEA	ESP,DWORD [-12+EBP]
  1453 00000DBD 5B                              	POP	EBX
  1454 00000DBE 5E                              	POP	ESI
  1455 00000DBF 5F                              	POP	EDI
  1456 00000DC0 5D                              	POP	EBP
  1457 00000DC1 C3                              	RET
  1458 00000DC2                                 L289:
  1459 00000DC2 8B 40 1C                        	MOV	EAX,DWORD [28+EAX]
  1460 00000DC5 89 45 D0                        	MOV	DWORD [-48+EBP],EAX
  1461 00000DC8 8D 45 D0                        	LEA	EAX,DWORD [-48+EBP]
  1462 00000DCB FF 75 0C                        	PUSH	DWORD [12+EBP]
  1463 00000DCE 50                              	PUSH	EAX
  1464 00000DCF 0F B7 42 1A                     	MOVZX	EAX,WORD [26+EDX]
  1465 00000DD3 50                              	PUSH	EAX
  1466 00000DD4 E8 [00000000]                   	CALL	_file_loadfile2
  1467 00000DD9 83 C4 0C                        	ADD	ESP,12
  1468 00000DDC 83 7D D0 23                     	CMP	DWORD [-48+EBP],35
  1469 00000DE0 89 45 CC                        	MOV	DWORD [-52+EBP],EAX
  1470 00000DE3 7E 1E                           	JLE	L255
  1471 00000DE5 89 C6                           	MOV	ESI,EAX
  1472 00000DE7 B9 00000004                     	MOV	ECX,4
  1473 00000DEC B8 [000000BB]                   	MOV	EAX,LC20
  1474 00000DF1 83 C6 04                        	ADD	ESI,4
  1475 00000DF4 FC                              	CLD
  1476 00000DF5 89 C7                           	MOV	EDI,EAX
  1477 00000DF7 F3                              	REPE
  1478 00000DF8 A6                              	CMPSB
  1479 00000DF9 75 08                           	JNE	L255
  1480 00000DFB 8B 45 CC                        	MOV	EAX,DWORD [-52+EBP]
  1481 00000DFE 80 38 00                        	CMP	BYTE [EAX],0
  1482 00000E01 74 2E                           	JE	L290
  1483 00000E03                                 L255:
  1484 00000E03 68 [000000C0]                   	PUSH	LC21
  1485 00000E08 FF 75 08                        	PUSH	DWORD [8+EBP]
  1486 00000E0B E8 FFFFF706                     	CALL	_cons_putstr0
  1487 00000E10 59                              	POP	ECX
  1488 00000E11 5B                              	POP	EBX
  1489 00000E12                                 L279:
  1490 00000E12 FF 75 D0                        	PUSH	DWORD [-48+EBP]
  1491 00000E15 FF 75 CC                        	PUSH	DWORD [-52+EBP]
  1492 00000E18 68 003C0000                     	PUSH	3932160
  1493 00000E1D E8 [00000000]                   	CALL	_memman_free_4k
  1494 00000E22 FF 75 08                        	PUSH	DWORD [8+EBP]
  1495 00000E25 E8 FFFFF5EE                     	CALL	_cons_newline
  1496 00000E2A B8 00000001                     	MOV	EAX,1
  1497 00000E2F EB 89                           	JMP	L247
  1498 00000E31                                 L290:
  1499 00000E31 8B 10                           	MOV	EDX,DWORD [EAX]
  1500 00000E33 8B 78 0C                        	MOV	EDI,DWORD [12+EAX]
  1501 00000E36 8B 58 10                        	MOV	EBX,DWORD [16+EAX]
  1502 00000E39 8B 70 14                        	MOV	ESI,DWORD [20+EAX]
  1503 00000E3C 52                              	PUSH	EDX
  1504 00000E3D 89 55 C4                        	MOV	DWORD [-60+EBP],EDX
  1505 00000E40 68 003C0000                     	PUSH	3932160
  1506 00000E45 89 7D C0                        	MOV	DWORD [-64+EBP],EDI
  1507 00000E48 E8 [00000000]                   	CALL	_memman_alloc_4k
  1508 00000E4D 8B 55 BC                        	MOV	EDX,DWORD [-68+EBP]
  1509 00000E50 89 45 C8                        	MOV	DWORD [-56+EBP],EAX
  1510 00000E53 89 82 00000114                  	MOV	DWORD [276+EDX],EAX
  1511 00000E59 68 000040FA                     	PUSH	16634
  1512 00000E5E 8B 45 D0                        	MOV	EAX,DWORD [-48+EBP]
  1513 00000E61 FF 75 CC                        	PUSH	DWORD [-52+EBP]
  1514 00000E64 48                              	DEC	EAX
  1515 00000E65 50                              	PUSH	EAX
  1516 00000E66 89 D0                           	MOV	EAX,EDX
  1517 00000E68 05 00000100                     	ADD	EAX,256
  1518 00000E6D 50                              	PUSH	EAX
  1519 00000E6E E8 [00000000]                   	CALL	_set_segmdesc
  1520 00000E73 8B 45 C4                        	MOV	EAX,DWORD [-60+EBP]
  1521 00000E76 68 000040F2                     	PUSH	16626
  1522 00000E7B 48                              	DEC	EAX
  1523 00000E7C FF 75 C8                        	PUSH	DWORD [-56+EBP]
  1524 00000E7F 50                              	PUSH	EAX
  1525 00000E80 8B 45 BC                        	MOV	EAX,DWORD [-68+EBP]
  1526 00000E83 05 00000108                     	ADD	EAX,264
  1527 00000E88 50                              	PUSH	EAX
  1528 00000E89 E8 [00000000]                   	CALL	_set_segmdesc
  1529 00000E8E 83 C4 28                        	ADD	ESP,40
  1530 00000E91 85 DB                           	TEST	EBX,EBX
  1531 00000E93 7E 14                           	JLE	L282
  1532 00000E95 89 F9                           	MOV	ECX,EDI
  1533 00000E97 8B 7D CC                        	MOV	EDI,DWORD [-52+EBP]
  1534 00000E9A 03 4D C8                        	ADD	ECX,DWORD [-56+EBP]
  1535 00000E9D 8D 14 37                        	LEA	EDX,DWORD [EDI+ESI*1]
  1536 00000EA0                                 L260:
  1537 00000EA0 8A 02                           	MOV	AL,BYTE [EDX]
  1538 00000EA2 42                              	INC	EDX
  1539 00000EA3 88 01                           	MOV	BYTE [ECX],AL
  1540 00000EA5 41                              	INC	ECX
  1541 00000EA6 4B                              	DEC	EBX
  1542 00000EA7 75 F7                           	JNE	L260
  1543 00000EA9                                 L282:
  1544 00000EA9 8D 45 D4                        	LEA	EAX,DWORD [-44+EBP]
  1545 00000EAC 31 DB                           	XOR	EBX,EBX
  1546 00000EAE 50                              	PUSH	EAX
  1547 00000EAF 8B 45 BC                        	MOV	EAX,DWORD [-68+EBP]
  1548 00000EB2 05 0000012A                     	ADD	EAX,298
  1549 00000EB7 50                              	PUSH	EAX
  1550 00000EB8 E8 [00000000]                   	CALL	_strcpy
  1551 00000EBD 58                              	POP	EAX
  1552 00000EBE 5A                              	POP	EDX
  1553 00000EBF                                 L266:
  1554 00000EBF 8B 45 BC                        	MOV	EAX,DWORD [-68+EBP]
  1555 00000EC2 8A 94 03 0000012A               	MOV	DL,BYTE [298+EBX+EAX*1]
  1556 00000EC9 8D 42 BF                        	LEA	EAX,DWORD [-65+EDX]
  1557 00000ECC 3C 19                           	CMP	AL,25
  1558 00000ECE 77 0D                           	JA	L263
  1559 00000ED0 8D 42 20                        	LEA	EAX,DWORD [32+EDX]
  1560 00000ED3 8B 55 BC                        	MOV	EDX,DWORD [-68+EBP]
  1561 00000ED6 88 84 13 0000012A               	MOV	BYTE [298+EBX+EDX*1],AL
  1562 00000EDD                                 L263:
  1563 00000EDD 43                              	INC	EBX
  1564 00000EDE 83 FB 0F                        	CMP	EBX,15
  1565 00000EE1 76 DC                           	JBE	L266
  1566 00000EE3 8B 45 BC                        	MOV	EAX,DWORD [-68+EBP]
  1567 00000EE6 BB 000000FF                     	MOV	EBX,255
  1568 00000EEB 83 C0 30                        	ADD	EAX,48
  1569 00000EEE 50                              	PUSH	EAX
  1570 00000EEF 6A 0C                           	PUSH	12
  1571 00000EF1 FF 75 C0                        	PUSH	DWORD [-64+EBP]
  1572 00000EF4 6A 04                           	PUSH	4
  1573 00000EF6 6A 1B                           	PUSH	27
  1574 00000EF8 E8 [00000000]                   	CALL	_start_app
  1575 00000EFD 83 C4 14                        	ADD	ESP,20
  1576 00000F00 8B 7D BC                        	MOV	EDI,DWORD [-68+EBP]
  1577 00000F03 C7 87 0000012A 736E6F63         	MOV	DWORD [298+EDI],1936617315
  1578 00000F0D C7 87 0000012E 00656C6F         	MOV	DWORD [302+EDI],6646895
  1579 00000F17 8B 35 00000FE4                  	MOV	ESI,DWORD [4068]
  1580 00000F1D 81 C6 00000418                  	ADD	ESI,1048
  1581 00000F23                                 L272:
  1582 00000F23 8B 46 1C                        	MOV	EAX,DWORD [28+ESI]
  1583 00000F26 83 E0 11                        	AND	EAX,17
  1584 00000F29 83 F8 11                        	CMP	EAX,17
  1585 00000F2C 74 7C                           	JE	L291
  1586 00000F2E                                 L269:
  1587 00000F2E 83 C6 28                        	ADD	ESI,40
  1588 00000F31 4B                              	DEC	EBX
  1589 00000F32 79 EF                           	JNS	L272
  1590 00000F34 31 F6                           	XOR	ESI,ESI
  1591 00000F36 BB 00000007                     	MOV	EBX,7
  1592 00000F3B                                 L278:
  1593 00000F3B 8B 55 BC                        	MOV	EDX,DWORD [-68+EBP]
  1594 00000F3E 8B 82 0000011C                  	MOV	EAX,DWORD [284+EDX]
  1595 00000F44 83 3C 30 00                     	CMP	DWORD [EAX+ESI*1],0
  1596 00000F48 75 34                           	JNE	L292
  1597 00000F4A                                 L275:
  1598 00000F4A 83 C6 1C                        	ADD	ESI,28
  1599 00000F4D 4B                              	DEC	EBX
  1600 00000F4E 79 EB                           	JNS	L278
  1601 00000F50 8B 45 BC                        	MOV	EAX,DWORD [-68+EBP]
  1602 00000F53 83 C0 10                        	ADD	EAX,16
  1603 00000F56 50                              	PUSH	EAX
  1604 00000F57 E8 [00000000]                   	CALL	_timer_cancelall
  1605 00000F5C FF 75 C4                        	PUSH	DWORD [-60+EBP]
  1606 00000F5F FF 75 C8                        	PUSH	DWORD [-56+EBP]
  1607 00000F62 68 003C0000                     	PUSH	3932160
  1608 00000F67 E8 [00000000]                   	CALL	_memman_free_4k
  1609 00000F6C 83 C4 10                        	ADD	ESP,16
  1610 00000F6F 8B 45 BC                        	MOV	EAX,DWORD [-68+EBP]
  1611 00000F72 C6 80 00000129 00               	MOV	BYTE [297+EAX],0
  1612 00000F79 E9 FFFFFE94                     	JMP	L279
  1613 00000F7E                                 L292:
  1614 00000F7E FF 74 30 08                     	PUSH	DWORD [8+EAX+ESI*1]
  1615 00000F82 8B 82 0000011C                  	MOV	EAX,DWORD [284+EDX]
  1616 00000F88 FF 34 30                        	PUSH	DWORD [EAX+ESI*1]
  1617 00000F8B 68 003C0000                     	PUSH	3932160
  1618 00000F90 E8 [00000000]                   	CALL	_memman_free_4k
  1619 00000F95 83 C4 0C                        	ADD	ESP,12
  1620 00000F98 8B 7D BC                        	MOV	EDI,DWORD [-68+EBP]
  1621 00000F9B 8B 87 0000011C                  	MOV	EAX,DWORD [284+EDI]
  1622 00000FA1 C7 04 30 00000000               	MOV	DWORD [EAX+ESI*1],0
  1623 00000FA8 EB A0                           	JMP	L275
  1624 00000FAA                                 L291:
  1625 00000FAA 8B 45 BC                        	MOV	EAX,DWORD [-68+EBP]
  1626 00000FAD 39 46 24                        	CMP	DWORD [36+ESI],EAX
  1627 00000FB0 0F 85 FFFFFF78                  	JNE	L269
  1628 00000FB6 56                              	PUSH	ESI
  1629 00000FB7 E8 [00000000]                   	CALL	_sheet_free
  1630 00000FBC 5F                              	POP	EDI
  1631 00000FBD E9 FFFFFF6C                     	JMP	L269
  1632                                          [SECTION .data]
  1633 000000D9                                 LC23:
  1634 000000D9 64 69 72 30 6E 61 6D 65 20 20   	DB	"dir0name       <DIR>  ",0x0A,0x00
       000000E3 20 20 20 20 20 3C 44 49 52 3E 
       000000ED 20 20 0A 00 
  1635 000000F1                                 LC22:
  1636 000000F1 66 69 6C 65 6E 61 6D 65 2E 65   	DB	"filename.ext   %7d",0x0A,0x00
       000000FB 78 74 20 20 20 25 37 64 0A 00 
  1637                                          [SECTION .text]
  1638 00000FC2                                 	GLOBAL	_dir_cons
  1639 00000FC2                                 _dir_cons:
  1640 00000FC2 55                              	PUSH	EBP
  1641 00000FC3 31 C0                           	XOR	EAX,EAX
  1642 00000FC5 89 E5                           	MOV	EBP,ESP
  1643 00000FC7 B9 0000001E                     	MOV	ECX,30
  1644 00000FCC 57                              	PUSH	EDI
  1645 00000FCD 53                              	PUSH	EBX
  1646 00000FCE 8D 7D D8                        	LEA	EDI,DWORD [-40+EBP]
  1647 00000FD1 FC                              	CLD
  1648 00000FD2 83 EC 20                        	SUB	ESP,32
  1649 00000FD5 8D 55 D8                        	LEA	EDX,DWORD [-40+EBP]
  1650 00000FD8 8B 5D 0C                        	MOV	EBX,DWORD [12+EBP]
  1651 00000FDB F3                              	REP
  1652 00000FDC AA                              	STOSB
  1653 00000FDD 80 3B E5                        	CMP	BYTE [EBX],-27
  1654 00000FE0 74 1F                           	JE	L293
  1655 00000FE2 8A 43 0B                        	MOV	AL,BYTE [11+EBX]
  1656 00000FE5 A9 00000018                     	TEST	EAX,24
  1657 00000FEA 74 3A                           	JE	L311
  1658 00000FEC 83 E0 10                        	AND	EAX,16
  1659 00000FEF 84 C0                           	TEST	AL,AL
  1660 00000FF1 75 15                           	JNE	L312
  1661 00000FF3                                 L301:
  1662 00000FF3 8D 45 D8                        	LEA	EAX,DWORD [-40+EBP]
  1663 00000FF6 50                              	PUSH	EAX
  1664 00000FF7 FF 75 08                        	PUSH	DWORD [8+EBP]
  1665 00000FFA E8 FFFFF517                     	CALL	_cons_putstr0
  1666 00000FFF 59                              	POP	ECX
  1667 00001000 5B                              	POP	EBX
  1668 00001001                                 L293:
  1669 00001001 8D 65 F8                        	LEA	ESP,DWORD [-8+EBP]
  1670 00001004 5B                              	POP	EBX
  1671 00001005 5F                              	POP	EDI
  1672 00001006 5D                              	POP	EBP
  1673 00001007 C3                              	RET
  1674 00001008                                 L312:
  1675 00001008 68 [000000D9]                   	PUSH	LC23
  1676 0000100D 52                              	PUSH	EDX
  1677 0000100E E8 [00000000]                   	CALL	_sprintf
  1678 00001013 5F                              	POP	EDI
  1679 00001014 31 D2                           	XOR	EDX,EDX
  1680 00001016 58                              	POP	EAX
  1681 00001017                                 L307:
  1682 00001017 8A 04 13                        	MOV	AL,BYTE [EBX+EDX*1]
  1683 0000101A 88 44 15 D8                     	MOV	BYTE [-40+EBP+EDX*1],AL
  1684 0000101E 42                              	INC	EDX
  1685 0000101F 83 FA 07                        	CMP	EDX,7
  1686 00001022 7E F3                           	JLE	L307
  1687 00001024 EB CD                           	JMP	L301
  1688 00001026                                 L311:
  1689 00001026 FF 73 1C                        	PUSH	DWORD [28+EBX]
  1690 00001029 68 [000000F1]                   	PUSH	LC22
  1691 0000102E 52                              	PUSH	EDX
  1692 0000102F E8 [00000000]                   	CALL	_sprintf
  1693 00001034 83 C4 0C                        	ADD	ESP,12
  1694 00001037 31 D2                           	XOR	EDX,EDX
  1695 00001039                                 L300:
  1696 00001039 8A 04 13                        	MOV	AL,BYTE [EBX+EDX*1]
  1697 0000103C 88 44 15 D8                     	MOV	BYTE [-40+EBP+EDX*1],AL
  1698 00001040 42                              	INC	EDX
  1699 00001041 83 FA 07                        	CMP	EDX,7
  1700 00001044 7E F3                           	JLE	L300
  1701 00001046 8A 43 08                        	MOV	AL,BYTE [8+EBX]
  1702 00001049 88 45 E1                        	MOV	BYTE [-31+EBP],AL
  1703 0000104C 8A 43 09                        	MOV	AL,BYTE [9+EBX]
  1704 0000104F 88 45 E2                        	MOV	BYTE [-30+EBP],AL
  1705 00001052 8A 43 0A                        	MOV	AL,BYTE [10+EBX]
  1706 00001055 88 45 E3                        	MOV	BYTE [-29+EBP],AL
  1707 00001058 EB 99                           	JMP	L301
  1708                                          [SECTION .data]
  1709 00000105                                 LC24:
  1710 00000105 2E 48 52 42 00                  	DB	".HRB",0x00
  1711                                          [SECTION .text]
  1712 0000105A                                 	GLOBAL	_app_search
  1713 0000105A                                 _app_search:
  1714 0000105A 55                              	PUSH	EBP
  1715 0000105B 31 C0                           	XOR	EAX,EAX
  1716 0000105D 89 E5                           	MOV	EBP,ESP
  1717 0000105F B9 00000040                     	MOV	ECX,64
  1718 00001064 57                              	PUSH	EDI
  1719 00001065 56                              	PUSH	ESI
  1720 00001066 8D BD FFFFFEF4                  	LEA	EDI,DWORD [-268+EBP]
  1721 0000106C FC                              	CLD
  1722 0000106D 53                              	PUSH	EBX
  1723 0000106E 8D B5 FFFFFEF4                  	LEA	ESI,DWORD [-268+EBP]
  1724 00001074 81 EC 00000104                  	SUB	ESP,260
  1725 0000107A F3                              	REP
  1726 0000107B AB                              	STOSD
  1727 0000107C 68 000000FF                     	PUSH	255
  1728 00001081 FF 75 08                        	PUSH	DWORD [8+EBP]
  1729 00001084 56                              	PUSH	ESI
  1730 00001085 E8 [00000000]                   	CALL	_strncpy
  1731 0000108A FF 75 10                        	PUSH	DWORD [16+EBP]
  1732 0000108D 68 000000E0                     	PUSH	224
  1733 00001092 FF 75 0C                        	PUSH	DWORD [12+EBP]
  1734 00001095 56                              	PUSH	ESI
  1735 00001096 E8 [00000000]                   	CALL	_file_search2
  1736 0000109B 83 C4 1C                        	ADD	ESP,28
  1737 0000109E 89 C3                           	MOV	EBX,EAX
  1738 000010A0 85 C0                           	TEST	EAX,EAX
  1739 000010A2 74 0C                           	JE	L325
  1740 000010A4                                 L315:
  1741 000010A4 89 DA                           	MOV	EDX,EBX
  1742 000010A6                                 L313:
  1743 000010A6 8D 65 F4                        	LEA	ESP,DWORD [-12+EBP]
  1744 000010A9 89 D0                           	MOV	EAX,EDX
  1745 000010AB 5B                              	POP	EBX
  1746 000010AC 5E                              	POP	ESI
  1747 000010AD 5F                              	POP	EDI
  1748 000010AE 5D                              	POP	EBP
  1749 000010AF C3                              	RET
  1750 000010B0                                 L325:
  1751 000010B0 83 CA FF                        	OR	EDX,-1
  1752 000010B3 31 C0                           	XOR	EAX,EAX
  1753 000010B5 FC                              	CLD
  1754 000010B6 89 F7                           	MOV	EDI,ESI
  1755 000010B8 89 D1                           	MOV	ECX,EDX
  1756 000010BA F2                              	REPNE
  1757 000010BB AE                              	SCASB
  1758 000010BC F7 D1                           	NOT	ECX
  1759 000010BE 80 BC 0D FFFFFEF3 2E            	CMP	BYTE [-269+EBP+ECX*1],46
  1760 000010C6 74 15                           	JE	L314
  1761 000010C8 89 F7                           	MOV	EDI,ESI
  1762 000010CA 89 D1                           	MOV	ECX,EDX
  1763 000010CC F2                              	REPNE
  1764 000010CD AE                              	SCASB
  1765 000010CE F7 D1                           	NOT	ECX
  1766 000010D0 49                              	DEC	ECX
  1767 000010D1 81 F9 000000FB                  	CMP	ECX,251
  1768 000010D7 0F 86 00000114                  	JBE	L326
  1769 000010DD                                 L314:
  1770 000010DD 85 DB                           	TEST	EBX,EBX
  1771 000010DF 75 C3                           	JNE	L315
  1772 000010E1 6A 2F                           	PUSH	47
  1773 000010E3 8D 85 FFFFFEF4                  	LEA	EAX,DWORD [-268+EBP]
  1774 000010E9 50                              	PUSH	EAX
  1775 000010EA E8 [00000000]                   	CALL	_strrchr
  1776 000010EF 5A                              	POP	EDX
  1777 000010F0 59                              	POP	ECX
  1778 000010F1 31 D2                           	XOR	EDX,EDX
  1779 000010F3 85 C0                           	TEST	EAX,EAX
  1780 000010F5 75 AF                           	JNE	L313
  1781 000010F7 C7 85 FFFFFEF0 [00000000]       	MOV	DWORD [-272+EBP],_epath
  1782 00001101 80 3D [00000000] 00             	CMP	BYTE [_epath],0
  1783 00001108 74 9A                           	JE	L315
  1784 0000110A                                 L323:
  1785 0000110A FC                              	CLD
  1786 0000110B 31 C0                           	XOR	EAX,EAX
  1787 0000110D 8D BD FFFFFEF4                  	LEA	EDI,DWORD [-268+EBP]
  1788 00001113 B9 00000040                     	MOV	ECX,64
  1789 00001118 8D B5 FFFFFEF4                  	LEA	ESI,DWORD [-268+EBP]
  1790 0000111E F3                              	REP
  1791 0000111F AB                              	STOSD
  1792 00001120 68 000000FF                     	PUSH	255
  1793 00001125 89 F7                           	MOV	EDI,ESI
  1794 00001127 FF B5 FFFFFEF0                  	PUSH	DWORD [-272+EBP]
  1795 0000112D 56                              	PUSH	ESI
  1796 0000112E E8 [00000000]                   	CALL	_strncpy
  1797 00001133 31 C0                           	XOR	EAX,EAX
  1798 00001135 FC                              	CLD
  1799 00001136 83 C9 FF                        	OR	ECX,-1
  1800 00001139 F2                              	REPNE
  1801 0000113A AE                              	SCASB
  1802 0000113B B8 00000100                     	MOV	EAX,256
  1803 00001140 F7 D1                           	NOT	ECX
  1804 00001142 29 C8                           	SUB	EAX,ECX
  1805 00001144 50                              	PUSH	EAX
  1806 00001145 FF 75 08                        	PUSH	DWORD [8+EBP]
  1807 00001148 56                              	PUSH	ESI
  1808 00001149 E8 [00000000]                   	CALL	_strncat
  1809 0000114E FF 75 10                        	PUSH	DWORD [16+EBP]
  1810 00001151 68 000000E0                     	PUSH	224
  1811 00001156 FF 75 0C                        	PUSH	DWORD [12+EBP]
  1812 00001159 56                              	PUSH	ESI
  1813 0000115A E8 [00000000]                   	CALL	_file_search2
  1814 0000115F 83 C4 28                        	ADD	ESP,40
  1815 00001162 89 C3                           	MOV	EBX,EAX
  1816 00001164 85 C0                           	TEST	EAX,EAX
  1817 00001166 0F 85 FFFFFF38                  	JNE	L315
  1818 0000116C FC                              	CLD
  1819 0000116D 83 C9 FF                        	OR	ECX,-1
  1820 00001170 31 C0                           	XOR	EAX,EAX
  1821 00001172 89 F7                           	MOV	EDI,ESI
  1822 00001174 F2                              	REPNE
  1823 00001175 AE                              	SCASB
  1824 00001176 F7 D1                           	NOT	ECX
  1825 00001178 80 BC 0D FFFFFEF3 2E            	CMP	BYTE [-269+EBP+ECX*1],46
  1826 00001180 74 12                           	JE	L321
  1827 00001182 83 C9 FF                        	OR	ECX,-1
  1828 00001185 89 F7                           	MOV	EDI,ESI
  1829 00001187 F2                              	REPNE
  1830 00001188 AE                              	SCASB
  1831 00001189 F7 D1                           	NOT	ECX
  1832 0000118B 49                              	DEC	ECX
  1833 0000118C 81 F9 000000FB                  	CMP	ECX,251
  1834 00001192 76 3A                           	JBE	L327
  1835 00001194                                 L321:
  1836 00001194 85 DB                           	TEST	EBX,EBX
  1837 00001196 0F 85 FFFFFF08                  	JNE	L315
  1838 0000119C FC                              	CLD
  1839 0000119D 31 C0                           	XOR	EAX,EAX
  1840 0000119F 8B BD FFFFFEF0                  	MOV	EDI,DWORD [-272+EBP]
  1841 000011A5 83 C9 FF                        	OR	ECX,-1
  1842 000011A8 F2                              	REPNE
  1843 000011A9 AE                              	SCASB
  1844 000011AA 8B 85 FFFFFEF0                  	MOV	EAX,DWORD [-272+EBP]
  1845 000011B0 F7 D1                           	NOT	ECX
  1846 000011B2 8D 4C 08 FF                     	LEA	ECX,DWORD [-1+EAX+ECX*1]
  1847 000011B6 8D 41 01                        	LEA	EAX,DWORD [1+ECX]
  1848 000011B9 89 85 FFFFFEF0                  	MOV	DWORD [-272+EBP],EAX
  1849 000011BF 80 79 01 00                     	CMP	BYTE [1+ECX],0
  1850 000011C3 0F 85 FFFFFF41                  	JNE	L323
  1851 000011C9 E9 FFFFFED6                     	JMP	L315
  1852 000011CE                                 L327:
  1853 000011CE 68 [00000105]                   	PUSH	LC24
  1854 000011D3 56                              	PUSH	ESI
  1855 000011D4 E8 [00000000]                   	CALL	_strcat
  1856 000011D9 FF 75 10                        	PUSH	DWORD [16+EBP]
  1857 000011DC 68 000000E0                     	PUSH	224
  1858 000011E1 FF 75 0C                        	PUSH	DWORD [12+EBP]
  1859 000011E4 56                              	PUSH	ESI
  1860 000011E5 E8 [00000000]                   	CALL	_file_search2
  1861 000011EA 83 C4 18                        	ADD	ESP,24
  1862 000011ED 89 C3                           	MOV	EBX,EAX
  1863 000011EF EB A3                           	JMP	L321
  1864 000011F1                                 L326:
  1865 000011F1 68 [00000105]                   	PUSH	LC24
  1866 000011F6 56                              	PUSH	ESI
  1867 000011F7 E8 [00000000]                   	CALL	_strcat
  1868 000011FC FF 75 10                        	PUSH	DWORD [16+EBP]
  1869 000011FF 68 000000E0                     	PUSH	224
  1870 00001204 FF 75 0C                        	PUSH	DWORD [12+EBP]
  1871 00001207 56                              	PUSH	ESI
  1872 00001208 E8 [00000000]                   	CALL	_file_search2
  1873 0000120D 83 C4 18                        	ADD	ESP,24
  1874 00001210 89 C3                           	MOV	EBX,EAX
  1875 00001212 E9 FFFFFEC6                     	JMP	L314
  1876                                          [SECTION .data]
  1877 0000010A                                 _adr.0:
  1878 0000010A 00                              	DB	0
  1879 0000010B 02                              	DB	2
  1880 0000010C 04                              	DB	4
  1881 0000010D 07                              	DB	7
  1882 0000010E 08                              	DB	8
  1883 0000010F 09                              	DB	9
  1884 00000110 32                              	DB	50
  1885 00000111                                 _max.1:
  1886 00000111 60                              	DB	96
  1887 00000112 59                              	DB	89
  1888 00000113 23                              	DB	35
  1889 00000114 31                              	DB	49
  1890 00000115 12                              	DB	18
  1891 00000116 99                              	DB	-103
  1892 00000117 99                              	DB	-103
  1893 00000118                                 LC25:
  1894 00000118 25 30 32 58 3A 25 30 32 58 00   	DB	"%02X:%02X",0x00,0x00
       00000122 00 
  1895 00000123                                 LC26:
  1896 00000123 25 30 32 58 25 30 32 58 2F 25   	DB	"%02X%02X/%02X/%02X",0x00,0x00
       0000012D 30 32 58 2F 25 30 32 58 00 00 
  1897                                          [SECTION .text]
  1898 00001217                                 	GLOBAL	_sysclock_task
  1899 00001217                                 _sysclock_task:
  1900 00001217 55                              	PUSH	EBP
  1901 00001218 89 E5                           	MOV	EBP,ESP
  1902 0000121A 57                              	PUSH	EDI
  1903 0000121B 56                              	PUSH	ESI
  1904 0000121C 53                              	PUSH	EBX
  1905 0000121D 83 EC 1C                        	SUB	ESP,28
  1906 00001220 E8 [00000000]                   	CALL	_task_now
  1907 00001225 89 45 DC                        	MOV	DWORD [-36+EBP],EAX
  1908 00001228 E8 [00000000]                   	CALL	_timer_alloc
  1909 0000122D 6A 01                           	PUSH	1
  1910 0000122F 89 45 D8                        	MOV	DWORD [-40+EBP],EAX
  1911 00001232 8B 45 DC                        	MOV	EAX,DWORD [-36+EBP]
  1912 00001235 83 C0 10                        	ADD	EAX,16
  1913 00001238 50                              	PUSH	EAX
  1914 00001239 FF 75 D8                        	PUSH	DWORD [-40+EBP]
  1915 0000123C E8 [00000000]                   	CALL	_timer_init
  1916 00001241 6A 64                           	PUSH	100
  1917 00001243 FF 75 D8                        	PUSH	DWORD [-40+EBP]
  1918 00001246 E8 [00000000]                   	CALL	_timer_settime
  1919 0000124B 83 C4 14                        	ADD	ESP,20
  1920 0000124E                                 L329:
  1921 0000124E E8 [00000000]                   	CALL	_io_cli
  1922 00001253 8B 5D DC                        	MOV	EBX,DWORD [-36+EBP]
  1923 00001256 83 C3 10                        	ADD	EBX,16
  1924 00001259 53                              	PUSH	EBX
  1925 0000125A E8 [00000000]                   	CALL	_fifo32_status
  1926 0000125F 5A                              	POP	EDX
  1927 00001260 85 C0                           	TEST	EAX,EAX
  1928 00001262 0F 84 00000147                  	JE	L358
  1929 00001268 53                              	PUSH	EBX
  1930 00001269 E8 [00000000]                   	CALL	_fifo32_get
  1931 0000126E 89 C3                           	MOV	EBX,EAX
  1932 00001270 E8 [00000000]                   	CALL	_io_sti
  1933 00001275 5F                              	POP	EDI
  1934 00001276 4B                              	DEC	EBX
  1935 00001277 75 D5                           	JNE	L329
  1936 00001279 31 FF                           	XOR	EDI,EDI
  1937 0000127B                                 L352:
  1938 0000127B C6 45 E3 00                     	MOV	BYTE [-29+EBP],0
  1939 0000127F 31 F6                           	XOR	ESI,ESI
  1940 00001281                                 L343:
  1941 00001281 0F B6 86 [0000010A]             	MOVZX	EAX,BYTE [_adr.0+ESI]
  1942 00001288 50                              	PUSH	EAX
  1943 00001289 6A 70                           	PUSH	112
  1944 0000128B E8 [00000000]                   	CALL	_io_out8
  1945 00001290 6A 71                           	PUSH	113
  1946 00001292 E8 [00000000]                   	CALL	_io_in8
  1947 00001297 83 C4 0C                        	ADD	ESP,12
  1948 0000129A 88 86 [0000019C]                	MOV	BYTE [_t+ESI],AL
  1949 000012A0 46                              	INC	ESI
  1950 000012A1 83 FE 06                        	CMP	ESI,6
  1951 000012A4 7E DB                           	JLE	L343
  1952 000012A6 31 F6                           	XOR	ESI,ESI
  1953 000012A8                                 L350:
  1954 000012A8 0F B6 86 [0000010A]             	MOVZX	EAX,BYTE [_adr.0+ESI]
  1955 000012AF 50                              	PUSH	EAX
  1956 000012B0 6A 70                           	PUSH	112
  1957 000012B2 E8 [00000000]                   	CALL	_io_out8
  1958 000012B7 6A 71                           	PUSH	113
  1959 000012B9 0F B6 9E [0000019C]             	MOVZX	EBX,BYTE [_t+ESI]
  1960 000012C0 E8 [00000000]                   	CALL	_io_in8
  1961 000012C5 83 C4 0C                        	ADD	ESP,12
  1962 000012C8 39 C3                           	CMP	EBX,EAX
  1963 000012CA 0F 84 000000BB                  	JE	L359
  1964 000012D0                                 L349:
  1965 000012D0 C6 45 E3 01                     	MOV	BYTE [-29+EBP],1
  1966 000012D4                                 L346:
  1967 000012D4 46                              	INC	ESI
  1968 000012D5 83 FE 06                        	CMP	ESI,6
  1969 000012D8 7E CE                           	JLE	L350
  1970 000012DA 80 7D E3 00                     	CMP	BYTE [-29+EBP],0
  1971 000012DE 74 07                           	JE	L336
  1972 000012E0 47                              	INC	EDI
  1973 000012E1 89 F8                           	MOV	EAX,EDI
  1974 000012E3 3C 02                           	CMP	AL,2
  1975 000012E5 7E 94                           	JLE	L352
  1976 000012E7                                 L336:
  1977 000012E7 0F B6 05 [0000019D]             	MOVZX	EAX,BYTE [_t+1]
  1978 000012EE 8B 35 00000FE4                  	MOV	ESI,DWORD [4068]
  1979 000012F4 8D 5D E4                        	LEA	EBX,DWORD [-28+EBP]
  1980 000012F7 50                              	PUSH	EAX
  1981 000012F8 81 C6 00000418                  	ADD	ESI,1048
  1982 000012FE 0F B6 05 [0000019E]             	MOVZX	EAX,BYTE [_t+2]
  1983 00001305 50                              	PUSH	EAX
  1984 00001306 68 [00000118]                   	PUSH	LC25
  1985 0000130B 53                              	PUSH	EBX
  1986 0000130C E8 [00000000]                   	CALL	_sprintf
  1987 00001311 6A 05                           	PUSH	5
  1988 00001313 53                              	PUSH	EBX
  1989 00001314 6A 08                           	PUSH	8
  1990 00001316 6A 00                           	PUSH	0
  1991 00001318 8B 46 08                        	MOV	EAX,DWORD [8+ESI]
  1992 0000131B 83 E8 15                        	SUB	EAX,21
  1993 0000131E 50                              	PUSH	EAX
  1994 0000131F 8B 46 04                        	MOV	EAX,DWORD [4+ESI]
  1995 00001322 83 E8 2D                        	SUB	EAX,45
  1996 00001325 50                              	PUSH	EAX
  1997 00001326 56                              	PUSH	ESI
  1998 00001327 E8 [00000000]                   	CALL	_putfouts8_asc_sht
  1999 0000132C 83 C4 2C                        	ADD	ESP,44
  2000 0000132F 0F B6 05 [0000019F]             	MOVZX	EAX,BYTE [_t+3]
  2001 00001336 50                              	PUSH	EAX
  2002 00001337 0F B6 05 [000001A0]             	MOVZX	EAX,BYTE [_t+4]
  2003 0000133E 50                              	PUSH	EAX
  2004 0000133F 0F B6 05 [000001A1]             	MOVZX	EAX,BYTE [_t+5]
  2005 00001346 50                              	PUSH	EAX
  2006 00001347 0F B6 05 [000001A2]             	MOVZX	EAX,BYTE [_t+6]
  2007 0000134E 50                              	PUSH	EAX
  2008 0000134F 68 [00000123]                   	PUSH	LC26
  2009 00001354 53                              	PUSH	EBX
  2010 00001355 E8 [00000000]                   	CALL	_sprintf
  2011 0000135A 6A 0A                           	PUSH	10
  2012 0000135C 53                              	PUSH	EBX
  2013 0000135D 6A 08                           	PUSH	8
  2014 0000135F 6A 00                           	PUSH	0
  2015 00001361 8B 46 08                        	MOV	EAX,DWORD [8+ESI]
  2016 00001364 83 E8 15                        	SUB	EAX,21
  2017 00001367 50                              	PUSH	EAX
  2018 00001368 8B 46 04                        	MOV	EAX,DWORD [4+ESI]
  2019 0000136B 2D 00000087                     	SUB	EAX,135
  2020 00001370 50                              	PUSH	EAX
  2021 00001371 56                              	PUSH	ESI
  2022 00001372 E8 [00000000]                   	CALL	_putfouts8_asc_sht
  2023 00001377 83 C4 34                        	ADD	ESP,52
  2024 0000137A 6A 64                           	PUSH	100
  2025 0000137C FF 75 D8                        	PUSH	DWORD [-40+EBP]
  2026 0000137F E8 [00000000]                   	CALL	_timer_settime
  2027 00001384 5B                              	POP	EBX
  2028 00001385 5E                              	POP	ESI
  2029 00001386 E9 FFFFFEC3                     	JMP	L329
  2030 0000138B                                 L359:
  2031 0000138B 8A 96 [0000019C]                	MOV	DL,BYTE [_t+ESI]
  2032 00001391 88 D0                           	MOV	AL,DL
  2033 00001393 83 E0 0F                        	AND	EAX,15
  2034 00001396 3C 09                           	CMP	AL,9
  2035 00001398 0F 87 FFFFFF32                  	JA	L349
  2036 0000139E 3A 96 [00000111]                	CMP	DL,BYTE [_max.1+ESI]
  2037 000013A4 0F 86 FFFFFF2A                  	JBE	L346
  2038 000013AA E9 FFFFFF21                     	JMP	L349
  2039 000013AF                                 L358:
  2040 000013AF FF 75 DC                        	PUSH	DWORD [-36+EBP]
  2041 000013B2 E8 [00000000]                   	CALL	_task_sleep
  2042 000013B7 E8 [00000000]                   	CALL	_io_sti
  2043 000013BC 58                              	POP	EAX
  2044 000013BD E9 FFFFFE8C                     	JMP	L329
  2045                                          [SECTION .data]
  2046 00000137                                 LC27:
  2047 00000137 70                              	DB	112
  2048 00000138 75                              	DB	117
  2049 00000139 7A                              	DB	122
  2050 0000013A 7A                              	DB	122
  2051 0000013B 6C                              	DB	108
  2052 0000013C 65                              	DB	101
  2053 0000013D 0A                              	DB	10
  2054                                          [SECTION .text]
  2055 000013C2                                 	GLOBAL	_scrsaver_task
  2056 000013C2                                 _scrsaver_task:
  2057 000013C2 55                              	PUSH	EBP
  2058 000013C3 B9 00000007                     	MOV	ECX,7
  2059 000013C8 89 E5                           	MOV	EBP,ESP
  2060 000013CA 57                              	PUSH	EDI
  2061 000013CB 56                              	PUSH	ESI
  2062 000013CC BE [00000137]                   	MOV	ESI,LC27
  2063 000013D1 53                              	PUSH	EBX
  2064 000013D2 8D 7D E4                        	LEA	EDI,DWORD [-28+EBP]
  2065 000013D5 FC                              	CLD
  2066 000013D6 83 EC 24                        	SUB	ESP,36
  2067 000013D9 C7 45 E0 00000000               	MOV	DWORD [-32+EBP],0
  2068 000013E0 F3                              	REP
  2069 000013E1 A4                              	MOVSB
  2070 000013E2 A1 00000FE4                     	MOV	EAX,DWORD [4068]
  2071 000013E7 C7 45 DC 00000000               	MOV	DWORD [-36+EBP],0
  2072 000013EE 89 45 D8                        	MOV	DWORD [-40+EBP],EAX
  2073 000013F1 E8 [00000000]                   	CALL	_task_now
  2074 000013F6 89 45 D4                        	MOV	DWORD [-44+EBP],EAX
  2075 000013F9 E8 [00000000]                   	CALL	_timer_alloc
  2076 000013FE 6A 01                           	PUSH	1
  2077 00001400 89 45 D0                        	MOV	DWORD [-48+EBP],EAX
  2078 00001403 8B 45 D4                        	MOV	EAX,DWORD [-44+EBP]
  2079 00001406 83 C0 10                        	ADD	EAX,16
  2080 00001409 50                              	PUSH	EAX
  2081 0000140A FF 75 D0                        	PUSH	DWORD [-48+EBP]
  2082 0000140D E8 [00000000]                   	CALL	_timer_init
  2083 00001412 83 C4 0C                        	ADD	ESP,12
  2084 00001415                                 L361:
  2085 00001415 E8 [00000000]                   	CALL	_io_cli
  2086 0000141A 8B 75 D4                        	MOV	ESI,DWORD [-44+EBP]
  2087 0000141D 83 C6 10                        	ADD	ESI,16
  2088 00001420 56                              	PUSH	ESI
  2089 00001421 E8 [00000000]                   	CALL	_fifo32_status
  2090 00001426 59                              	POP	ECX
  2091 00001427 85 C0                           	TEST	EAX,EAX
  2092 00001429 0F 84 000000C1                  	JE	L385
  2093 0000142F 56                              	PUSH	ESI
  2094 00001430 E8 [00000000]                   	CALL	_fifo32_get
  2095 00001435 89 C6                           	MOV	ESI,EAX
  2096 00001437 E8 [00000000]                   	CALL	_io_sti
  2097 0000143C 58                              	POP	EAX
  2098 0000143D 83 FE 01                        	CMP	ESI,1
  2099 00001440 74 47                           	JE	L386
  2100 00001442 8D 86 FFFFFF00                  	LEA	EAX,DWORD [-256+ESI]
  2101 00001448 3D 000001FF                     	CMP	EAX,511
  2102 0000144D 77 C6                           	JA	L361
  2103 0000144F 83 7D E0 01                     	CMP	DWORD [-32+EBP],1
  2104 00001453 74 0B                           	JE	L387
  2105 00001455 FF 75 D0                        	PUSH	DWORD [-48+EBP]
  2106 00001458 E8 [00000000]                   	CALL	_timer_cancel
  2107 0000145D                                 L384:
  2108 0000145D 59                              	POP	ECX
  2109 0000145E EB B5                           	JMP	L361
  2110 00001460                                 L387:
  2111 00001460 68 0000010A                     	PUSH	266
  2112 00001465 FF 75 DC                        	PUSH	DWORD [-36+EBP]
  2113 00001468 E8 [00000000]                   	CALL	_fifo32_put_io
  2114 0000146D 8B 55 D8                        	MOV	EDX,DWORD [-40+EBP]
  2115 00001470 8B 42 10                        	MOV	EAX,DWORD [16+EDX]
  2116 00001473 40                              	INC	EAX
  2117 00001474 50                              	PUSH	EAX
  2118 00001475 FF 75 08                        	PUSH	DWORD [8+EBP]
  2119 00001478 E8 [00000000]                   	CALL	_sheet_updown
  2120 0000147D 83 C4 10                        	ADD	ESP,16
  2121 00001480 C7 45 E0 00000000               	MOV	DWORD [-32+EBP],0
  2122 00001487 EB 8C                           	JMP	L361
  2123 00001489                                 L386:
  2124 00001489 FF 75 0C                        	PUSH	DWORD [12+EBP]
  2125 0000148C 6A 00                           	PUSH	0
  2126 0000148E 31 F6                           	XOR	ESI,ESI
  2127 00001490 E8 [00000000]                   	CALL	_open_constask
  2128 00001495 59                              	POP	ECX
  2129 00001496 89 C7                           	MOV	EDI,EAX
  2130 00001498 8D 50 10                        	LEA	EDX,DWORD [16+EAX]
  2131 0000149B 8B 45 D8                        	MOV	EAX,DWORD [-40+EBP]
  2132 0000149E 89 55 DC                        	MOV	DWORD [-36+EBP],EDX
  2133 000014A1 8B 58 10                        	MOV	EBX,DWORD [16+EAX]
  2134 000014A4 58                              	POP	EAX
  2135 000014A5                                 L372:
  2136 000014A5 0F BE 44 35 E4                  	MOVSX	EAX,BYTE [-28+EBP+ESI*1]
  2137 000014AA 05 00000100                     	ADD	EAX,256
  2138 000014AF 46                              	INC	ESI
  2139 000014B0 50                              	PUSH	EAX
  2140 000014B1 FF 75 DC                        	PUSH	DWORD [-36+EBP]
  2141 000014B4 E8 [00000000]                   	CALL	_fifo32_put_io
  2142 000014B9 83 FE 06                        	CMP	ESI,6
  2143 000014BC 58                              	POP	EAX
  2144 000014BD 5A                              	POP	EDX
  2145 000014BE 7E E5                           	JLE	L372
  2146 000014C0                                 L373:
  2147 000014C0 8B 55 D8                        	MOV	EDX,DWORD [-40+EBP]
  2148 000014C3 39 5A 10                        	CMP	DWORD [16+EDX],EBX
  2149 000014C6 7F 06                           	JG	L374
  2150 000014C8 83 7F 04 00                     	CMP	DWORD [4+EDI],0
  2151 000014CC 75 F2                           	JNE	L373
  2152 000014CE                                 L374:
  2153 000014CE 83 7F 04 00                     	CMP	DWORD [4+EDI],0
  2154 000014D2 0F 84 FFFFFF3D                  	JE	L361
  2155 000014D8 6A FF                           	PUSH	-1
  2156 000014DA FF 75 08                        	PUSH	DWORD [8+EBP]
  2157 000014DD E8 [00000000]                   	CALL	_sheet_updown
  2158 000014E2 5B                              	POP	EBX
  2159 000014E3 5E                              	POP	ESI
  2160 000014E4 C7 45 E0 00000001               	MOV	DWORD [-32+EBP],1
  2161 000014EB E9 FFFFFF25                     	JMP	L361
  2162 000014F0                                 L385:
  2163 000014F0 83 7D E0 00                     	CMP	DWORD [-32+EBP],0
  2164 000014F4 75 0F                           	JNE	L365
  2165 000014F6 68 00007530                     	PUSH	30000
  2166 000014FB FF 75 D0                        	PUSH	DWORD [-48+EBP]
  2167 000014FE E8 [00000000]                   	CALL	_timer_settime
  2168 00001503 58                              	POP	EAX
  2169 00001504 5A                              	POP	EDX
  2170 00001505                                 L365:
  2171 00001505 FF 75 D4                        	PUSH	DWORD [-44+EBP]
  2172 00001508 E8 [00000000]                   	CALL	_task_sleep
  2173 0000150D E8 [00000000]                   	CALL	_io_sti
  2174 00001512 E9 FFFFFF46                     	JMP	L384
  2175                                          [SECTION .data]
  2176 0000013E                                 LC28:
  2177 0000013E 66 6C 61 67 73 20 3D 20 25 78   	DB	"flags = %x",0x0A,0x00
       00000148 0A 00 
  2178                                          [SECTION .text]
  2179 00001517                                 	GLOBAL	_hrb_api
  2180 00001517                                 _hrb_api:
  2181 00001517 55                              	PUSH	EBP
  2182 00001518 89 E5                           	MOV	EBP,ESP
  2183 0000151A 57                              	PUSH	EDI
  2184 0000151B 56                              	PUSH	ESI
  2185 0000151C 53                              	PUSH	EBX
  2186 0000151D 83 EC 38                        	SUB	ESP,56
  2187 00001520 8B 5D 1C                        	MOV	EBX,DWORD [28+EBP]
  2188 00001523 8B 7D 18                        	MOV	EDI,DWORD [24+EBP]
  2189 00001526 E8 [00000000]                   	CALL	_task_now
  2190 0000152B 83 FB 01                        	CMP	EBX,1
  2191 0000152E 8B 0D 00000FE4                  	MOV	ECX,DWORD [4068]
  2192 00001534 89 45 D0                        	MOV	DWORD [-48+EBP],EAX
  2193 00001537 89 4D C8                        	MOV	DWORD [-56+EBP],ECX
  2194 0000153A 8B 55 D0                        	MOV	EDX,DWORD [-48+EBP]
  2195 0000153D 8B 80 00000114                  	MOV	EAX,DWORD [276+EAX]
  2196 00001543 89 45 CC                        	MOV	DWORD [-52+EBP],EAX
  2197 00001546 A1 00000FEC                     	MOV	EAX,DWORD [4076]
  2198 0000154B 8B B2 00000110                  	MOV	ESI,DWORD [272+EDX]
  2199 00001551 89 45 C4                        	MOV	DWORD [-60+EBP],EAX
  2200 00001554 89 35 [000001A4]                	MOV	DWORD [_tcons],ESI
  2201 0000155A 0F 84 000008DD                  	JE	L550
  2202 00001560 83 FB 02                        	CMP	EBX,2
  2203 00001563 0F 84 000008C2                  	JE	L551
  2204 00001569 83 FB 03                        	CMP	EBX,3
  2205 0000156C 0F 84 000008A4                  	JE	L552
  2206 00001572 83 FB 04                        	CMP	EBX,4
  2207 00001575 0F 84 00000890                  	JE	L553
  2208 0000157B 83 FB 05                        	CMP	EBX,5
  2209 0000157E 0F 84 000007EF                  	JE	L554
  2210 00001584 83 FB 06                        	CMP	EBX,6
  2211 00001587 0F 84 00000798                  	JE	L555
  2212 0000158D 83 FB 07                        	CMP	EBX,7
  2213 00001590 0F 84 0000075E                  	JE	L556
  2214 00001596 83 FB 08                        	CMP	EBX,8
  2215 00001599 0F 84 00000734                  	JE	L557
  2216 0000159F 83 FB 09                        	CMP	EBX,9
  2217 000015A2 0F 84 0000070D                  	JE	L558
  2218 000015A8 83 FB 0A                        	CMP	EBX,10
  2219 000015AB 0F 84 000006E6                  	JE	L559
  2220 000015B1 83 FB 0B                        	CMP	EBX,11
  2221 000015B4 0F 84 00000695                  	JE	L560
  2222 000015BA 83 FB 0C                        	CMP	EBX,12
  2223 000015BD 0F 84 00000644                  	JE	L561
  2224 000015C3 83 FB 0D                        	CMP	EBX,13
  2225 000015C6 0F 84 000005CB                  	JE	L562
  2226 000015CC 83 FB 0E                        	CMP	EBX,14
  2227 000015CF 0F 84 000005B7                  	JE	L563
  2228 000015D5 83 FB 0F                        	CMP	EBX,15
  2229 000015D8 0F 84 000004D0                  	JE	L430
  2230 000015DE 83 FB 10                        	CMP	EBX,16
  2231 000015E1 0F 84 000004B6                  	JE	L564
  2232 000015E7 83 FB 11                        	CMP	EBX,17
  2233 000015EA 0F 84 00000492                  	JE	L565
  2234 000015F0 83 FB 12                        	CMP	EBX,18
  2235 000015F3 0F 84 0000047B                  	JE	L566
  2236 000015F9 83 FB 13                        	CMP	EBX,19
  2237 000015FC 0F 84 00000466                  	JE	L567
  2238 00001602 83 FB 14                        	CMP	EBX,20
  2239 00001605 0F 84 000003F1                  	JE	L568
  2240 0000160B 83 FB 15                        	CMP	EBX,21
  2241 0000160E 0F 84 0000034C                  	JE	L569
  2242 00001614 83 FB 16                        	CMP	EBX,22
  2243 00001617 0F 84 00000323                  	JE	L570
  2244 0000161D 83 FB 17                        	CMP	EBX,23
  2245 00001620 0F 84 000002D5                  	JE	L571
  2246 00001626 83 FB 18                        	CMP	EBX,24
  2247 00001629 0F 84 0000029B                  	JE	L572
  2248 0000162F 83 FB 19                        	CMP	EBX,25
  2249 00001632 0F 84 00000267                  	JE	L573
  2250 00001638 83 FB 1A                        	CMP	EBX,26
  2251 0000163B 0F 84 0000022B                  	JE	L574
  2252 00001641 83 FB 1B                        	CMP	EBX,27
  2253 00001644 0F 84 00000210                  	JE	L575
  2254 0000164A 83 FB 1C                        	CMP	EBX,28
  2255 0000164D 0F 84 000001EC                  	JE	L576
  2256 00001653 83 FB 1D                        	CMP	EBX,29
  2257 00001656 0F 84 000001B7                  	JE	L577
  2258 0000165C 83 FB 1E                        	CMP	EBX,30
  2259 0000165F 0F 84 00000190                  	JE	L578
  2260 00001665 83 FB 1F                        	CMP	EBX,31
  2261 00001668 0F 84 00000146                  	JE	L579
  2262 0000166E 83 FB 20                        	CMP	EBX,32
  2263 00001671 0F 84 000000CF                  	JE	L580
  2264 00001677 83 FB 21                        	CMP	EBX,33
  2265 0000167A 74 76                           	JE	L581
  2266 0000167C 83 FB 22                        	CMP	EBX,34
  2267 0000167F 74 5C                           	JE	L582
  2268 00001681 83 FB 23                        	CMP	EBX,35
  2269 00001684 74 34                           	JE	L583
  2270 00001686 83 FB 24                        	CMP	EBX,36
  2271 00001689 74 0A                           	JE	L584
  2272 0000168B                                 L390:
  2273 0000168B 31 C0                           	XOR	EAX,EAX
  2274 0000168D                                 L388:
  2275 0000168D 8D 65 F4                        	LEA	ESP,DWORD [-12+EBP]
  2276 00001690 5B                              	POP	EBX
  2277 00001691 5E                              	POP	ESI
  2278 00001692 5F                              	POP	EDI
  2279 00001693 5D                              	POP	EBP
  2280 00001694 C3                              	RET
  2281 00001695                                 L584:
  2282 00001695 8B 55 CC                        	MOV	EDX,DWORD [-52+EBP]
  2283 00001698 03 55 24                        	ADD	EDX,DWORD [36+EBP]
  2284 0000169B 0F BF 05 00000FF4               	MOVSX	EAX,WORD [4084]
  2285 000016A2 89 02                           	MOV	DWORD [EDX],EAX
  2286 000016A4 0F BF 05 00000FF6               	MOVSX	EAX,WORD [4086]
  2287 000016AB 89 42 04                        	MOV	DWORD [4+EDX],EAX
  2288 000016AE 0F BE 05 00000FF2               	MOVSX	EAX,BYTE [4082]
  2289 000016B5 89 42 08                        	MOV	DWORD [8+EDX],EAX
  2290 000016B8 EB D1                           	JMP	L390
  2291 000016BA                                 L583:
  2292 000016BA 8B 45 D0                        	MOV	EAX,DWORD [-48+EBP]
  2293 000016BD 8B 55 CC                        	MOV	EDX,DWORD [-52+EBP]
  2294 000016C0 FF B0 00000120                  	PUSH	DWORD [288+EAX]
  2295 000016C6 FF 75 24                        	PUSH	DWORD [36+EBP]
  2296 000016C9 FF 75 20                        	PUSH	DWORD [32+EBP]
  2297 000016CC 8D 04 3A                        	LEA	EAX,DWORD [EDX+EDI*1]
  2298 000016CF 50                              	PUSH	EAX
  2299 000016D0 E8 00000AA1                     	CALL	_hrb_api_fwrite
  2300 000016D5                                 L538:
  2301 000016D5 89 45 44                        	MOV	DWORD [68+EBP],EAX
  2302 000016D8                                 L547:
  2303 000016D8 83 C4 10                        	ADD	ESP,16
  2304 000016DB EB AE                           	JMP	L390
  2305 000016DD                                 L582:
  2306 000016DD 8B 75 D0                        	MOV	ESI,DWORD [-48+EBP]
  2307 000016E0 FF B6 00000120                  	PUSH	DWORD [288+ESI]
  2308 000016E6 FF 75 24                        	PUSH	DWORD [36+EBP]
  2309 000016E9 E8 00000A4C                     	CALL	_hrb_api_fclose
  2310 000016EE                                 L543:
  2311 000016EE 5B                              	POP	EBX
  2312 000016EF 5E                              	POP	ESI
  2313 000016F0 EB 99                           	JMP	L390
  2314 000016F2                                 L581:
  2315 000016F2 31 DB                           	XOR	EBX,EBX
  2316 000016F4 31 D2                           	XOR	EDX,EDX
  2317 000016F6                                 L524:
  2318 000016F6 8B 75 D0                        	MOV	ESI,DWORD [-48+EBP]
  2319 000016F9 8B 86 0000011C                  	MOV	EAX,DWORD [284+ESI]
  2320 000016FF 83 3C 10 00                     	CMP	DWORD [EAX+EDX*1],0
  2321 00001703 74 15                           	JE	L520
  2322 00001705 43                              	INC	EBX
  2323 00001706 83 C2 1C                        	ADD	EDX,28
  2324 00001709 83 FB 07                        	CMP	EBX,7
  2325 0000170C 7E E8                           	JLE	L524
  2326 0000170E                                 L525:
  2327 0000170E C7 45 44 00000000               	MOV	DWORD [68+EBP],0
  2328 00001715 E9 FFFFFF71                     	JMP	L390
  2329 0000171A                                 L520:
  2330 0000171A 83 FB 07                        	CMP	EBX,7
  2331 0000171D 7F EF                           	JG	L525
  2332 0000171F 8B 45 D0                        	MOV	EAX,DWORD [-48+EBP]
  2333 00001722 8B 55 D0                        	MOV	EDX,DWORD [-48+EBP]
  2334 00001725 8B 4D CC                        	MOV	ECX,DWORD [-52+EBP]
  2335 00001728 FF B0 00000120                  	PUSH	DWORD [288+EAX]
  2336 0000172E 6B C3 1C                        	IMUL	EAX,EBX,28
  2337 00001731 03 82 0000011C                  	ADD	EAX,DWORD [284+EDX]
  2338 00001737 50                              	PUSH	EAX
  2339 00001738 8D 04 39                        	LEA	EAX,DWORD [ECX+EDI*1]
  2340 0000173B FF 75 24                        	PUSH	DWORD [36+EBP]
  2341 0000173E 50                              	PUSH	EAX
  2342 0000173F E8 0000094C                     	CALL	_hrb_api_fopen
  2343 00001744 EB 8F                           	JMP	L538
  2344 00001746                                 L580:
  2345 00001746 8B 45 10                        	MOV	EAX,DWORD [16+EBP]
  2346 00001749 89 FE                           	MOV	ESI,EDI
  2347 0000174B 03 45 CC                        	ADD	EAX,DWORD [-52+EBP]
  2348 0000174E 83 E6 FE                        	AND	ESI,-2
  2349 00001751 0F BE 5D 20                     	MOVSX	EBX,BYTE [32+EBP]
  2350 00001755 50                              	PUSH	EAX
  2351 00001756 8B 55 20                        	MOV	EDX,DWORD [32+EBP]
  2352 00001759 C1 FA 10                        	SAR	EDX,16
  2353 0000175C 53                              	PUSH	EBX
  2354 0000175D 0F B6 45 24                     	MOVZX	EAX,BYTE [36+EBP]
  2355 00001761 50                              	PUSH	EAX
  2356 00001762 89 55 C0                        	MOV	DWORD [-64+EBP],EDX
  2357 00001765 FF 75 08                        	PUSH	DWORD [8+EBP]
  2358 00001768 FF 75 0C                        	PUSH	DWORD [12+EBP]
  2359 0000176B FF 76 04                        	PUSH	DWORD [4+ESI]
  2360 0000176E FF 36                           	PUSH	DWORD [ESI]
  2361 00001770 E8 [00000000]                   	CALL	_putfonts8_asc
  2362 00001775 83 C4 1C                        	ADD	ESP,28
  2363 00001778 83 E7 01                        	AND	EDI,1
  2364 0000177B 0F 85 FFFFFF0A                  	JNE	L390
  2365 00001781 80 7E 1C 00                     	CMP	BYTE [28+ESI],0
  2366 00001785 0F 88 FFFFFF00                  	JS	L390
  2367 0000178B 89 D8                           	MOV	EAX,EBX
  2368 0000178D 8B 4D 0C                        	MOV	ECX,DWORD [12+EBP]
  2369 00001790 0F AF 5D C0                     	IMUL	EBX,DWORD [-64+EBP]
  2370 00001794 C1 E0 04                        	SAL	EAX,4
  2371 00001797 89 5D C0                        	MOV	DWORD [-64+EBP],EBX
  2372 0000179A 03 45 08                        	ADD	EAX,DWORD [8+EBP]
  2373 0000179D 50                              	PUSH	EAX
  2374 0000179E 8D 04 D9                        	LEA	EAX,DWORD [ECX+EBX*8]
  2375 000017A1                                 L549:
  2376 000017A1 50                              	PUSH	EAX
  2377 000017A2 FF 75 08                        	PUSH	DWORD [8+EBP]
  2378 000017A5 51                              	PUSH	ECX
  2379 000017A6                                 L545:
  2380 000017A6 56                              	PUSH	ESI
  2381 000017A7                                 L546:
  2382 000017A7 E8 [00000000]                   	CALL	_sheet_refresh
  2383 000017AC 83 C4 14                        	ADD	ESP,20
  2384 000017AF E9 FFFFFED7                     	JMP	L390
  2385 000017B4                                 L579:
  2386 000017B4 0F B7 45 08                     	MOVZX	EAX,WORD [8+EBP]
  2387 000017B8 C1 7D 08 10                     	SAR	DWORD [8+EBP],16
  2388 000017BC FF 75 10                        	PUSH	DWORD [16+EBP]
  2389 000017BF 50                              	PUSH	EAX
  2390 000017C0 8B 45 24                        	MOV	EAX,DWORD [36+EBP]
  2391 000017C3 0F B7 55 0C                     	MOVZX	EDX,WORD [12+EBP]
  2392 000017C7 C1 7D 0C 10                     	SAR	DWORD [12+EBP],16
  2393 000017CB FF 75 08                        	PUSH	DWORD [8+EBP]
  2394 000017CE 52                              	PUSH	EDX
  2395 000017CF 01 45 CC                        	ADD	DWORD [-52+EBP],EAX
  2396 000017D2 0F B7 4D 20                     	MOVZX	ECX,WORD [32+EBP]
  2397 000017D6 C1 7D 20 10                     	SAR	DWORD [32+EBP],16
  2398 000017DA FF 75 0C                        	PUSH	DWORD [12+EBP]
  2399 000017DD 51                              	PUSH	ECX
  2400 000017DE FF 75 20                        	PUSH	DWORD [32+EBP]
  2401 000017E1                                 L539:
  2402 000017E1 FF 75 CC                        	PUSH	DWORD [-52+EBP]
  2403 000017E4 57                              	PUSH	EDI
  2404 000017E5 E8 000007D7                     	CALL	_hrb_api_bitblt
  2405 000017EA 89 45 44                        	MOV	DWORD [68+EBP],EAX
  2406 000017ED                                 L542:
  2407 000017ED 83 C4 24                        	ADD	ESP,36
  2408 000017F0 E9 FFFFFE96                     	JMP	L390
  2409 000017F5                                 L578:
  2410 000017F5 83 7D 24 00                     	CMP	DWORD [36+EBP],0
  2411 000017F9 74 0C                           	JE	L509
  2412 000017FB 81 67 1C FFFFFF7F               	AND	DWORD [28+EDI],-129
  2413 00001802 E9 FFFFFE84                     	JMP	L390
  2414 00001807                                 L509:
  2415 00001807 81 4F 1C 00000080               	OR	DWORD [28+EDI],128
  2416 0000180E E9 FFFFFE78                     	JMP	L390
  2417 00001813                                 L577:
  2418 00001813 8B 75 CC                        	MOV	ESI,DWORD [-52+EBP]
  2419 00001816 31 DB                           	XOR	EBX,EBX
  2420 00001818 8D 0C 3E                        	LEA	ECX,DWORD [ESI+EDI*1]
  2421 0000181B                                 L506:
  2422 0000181B 8A 93 [0000019C]                	MOV	DL,BYTE [_t+EBX]
  2423 00001821 88 D0                           	MOV	AL,DL
  2424 00001823 83 E2 0F                        	AND	EDX,15
  2425 00001826 C0 E8 04                        	SHR	AL,4
  2426 00001829 0F B6 C0                        	MOVZX	EAX,AL
  2427 0000182C 6B C0 0A                        	IMUL	EAX,EAX,10
  2428 0000182F 01 C2                           	ADD	EDX,EAX
  2429 00001831 88 14 0B                        	MOV	BYTE [EBX+ECX*1],DL
  2430 00001834 43                              	INC	EBX
  2431 00001835 83 FB 06                        	CMP	EBX,6
  2432 00001838 7E E1                           	JLE	L506
  2433 0000183A E9 FFFFFE4C                     	JMP	L390
  2434 0000183F                                 L576:
  2435 0000183F FF 75 08                        	PUSH	DWORD [8+EBP]
  2436 00001842 FF 75 10                        	PUSH	DWORD [16+EBP]
  2437 00001845 FF 75 08                        	PUSH	DWORD [8+EBP]
  2438 00001848 6A 00                           	PUSH	0
  2439 0000184A 8B 4D 24                        	MOV	ECX,DWORD [36+EBP]
  2440 0000184D 6A 00                           	PUSH	0
  2441 0000184F 01 4D CC                        	ADD	DWORD [-52+EBP],ECX
  2442 00001852 FF 75 0C                        	PUSH	DWORD [12+EBP]
  2443 00001855 FF 75 20                        	PUSH	DWORD [32+EBP]
  2444 00001858 EB 87                           	JMP	L539
  2445 0000185A                                 L575:
  2446 0000185A 8B 55 D0                        	MOV	EDX,DWORD [-48+EBP]
  2447 0000185D 0F B6 82 00000128               	MOVZX	EAX,BYTE [296+EDX]
  2448 00001864                                 L540:
  2449 00001864 89 45 44                        	MOV	DWORD [68+EBP],EAX
  2450 00001867 E9 FFFFFE1F                     	JMP	L390
  2451 0000186C                                 L574:
  2452 0000186C 31 DB                           	XOR	EBX,EBX
  2453 0000186E                                 L491:
  2454 0000186E 8B 75 D0                        	MOV	ESI,DWORD [-48+EBP]
  2455 00001871 8B 4D CC                        	MOV	ECX,DWORD [-52+EBP]
  2456 00001874 8B 86 00000124                  	MOV	EAX,DWORD [292+ESI]
  2457 0000187A 8D 14 39                        	LEA	EDX,DWORD [ECX+EDI*1]
  2458 0000187D 8A 04 03                        	MOV	AL,BYTE [EBX+EAX*1]
  2459 00001880 88 04 13                        	MOV	BYTE [EBX+EDX*1],AL
  2460 00001883 8B 86 00000124                  	MOV	EAX,DWORD [292+ESI]
  2461 00001889 80 3C 03 00                     	CMP	BYTE [EBX+EAX*1],0
  2462 0000188D 74 08                           	JE	L492
  2463 0000188F 3B 5D 20                        	CMP	EBX,DWORD [32+EBP]
  2464 00001892 7D 03                           	JGE	L492
  2465 00001894 43                              	INC	EBX
  2466 00001895 EB D7                           	JMP	L491
  2467 00001897                                 L492:
  2468 00001897 89 5D 44                        	MOV	DWORD [68+EBP],EBX
  2469 0000189A E9 FFFFFDEC                     	JMP	L390
  2470 0000189F                                 L573:
  2471 0000189F 31 DB                           	XOR	EBX,EBX
  2472 000018A1 8B 75 24                        	MOV	ESI,DWORD [36+EBP]
  2473 000018A4 3B 5D 20                        	CMP	EBX,DWORD [32+EBP]
  2474 000018A7 7D EE                           	JGE	L492
  2475 000018A9                                 L488:
  2476 000018A9 8B 4E 0C                        	MOV	ECX,DWORD [12+ESI]
  2477 000018AC 3B 4E 04                        	CMP	ECX,DWORD [4+ESI]
  2478 000018AF 74 E6                           	JE	L492
  2479 000018B1 8B 55 CC                        	MOV	EDX,DWORD [-52+EBP]
  2480 000018B4 8D 04 3A                        	LEA	EAX,DWORD [EDX+EDI*1]
  2481 000018B7 8B 16                           	MOV	EDX,DWORD [ESI]
  2482 000018B9 8A 14 11                        	MOV	DL,BYTE [ECX+EDX*1]
  2483 000018BC 88 14 03                        	MOV	BYTE [EBX+EAX*1],DL
  2484 000018BF 43                              	INC	EBX
  2485 000018C0 FF 46 0C                        	INC	DWORD [12+ESI]
  2486 000018C3 3B 5D 20                        	CMP	EBX,DWORD [32+EBP]
  2487 000018C6 7C E1                           	JL	L488
  2488 000018C8 EB CD                           	JMP	L492
  2489 000018CA                                 L572:
  2490 000018CA 8B 75 24                        	MOV	ESI,DWORD [36+EBP]
  2491 000018CD 83 7D 20 00                     	CMP	DWORD [32+EBP],0
  2492 000018D1 75 05                           	JNE	L476
  2493 000018D3 8B 46 04                        	MOV	EAX,DWORD [4+ESI]
  2494 000018D6 EB 8C                           	JMP	L540
  2495 000018D8                                 L476:
  2496 000018D8 83 7D 20 01                     	CMP	DWORD [32+EBP],1
  2497 000018DC 74 15                           	JE	L585
  2498 000018DE 83 7D 20 02                     	CMP	DWORD [32+EBP],2
  2499 000018E2 0F 85 FFFFFDA3                  	JNE	L390
  2500 000018E8 8B 46 0C                        	MOV	EAX,DWORD [12+ESI]
  2501 000018EB 2B 46 04                        	SUB	EAX,DWORD [4+ESI]
  2502 000018EE E9 FFFFFF71                     	JMP	L540
  2503 000018F3                                 L585:
  2504 000018F3 8B 46 0C                        	MOV	EAX,DWORD [12+ESI]
  2505 000018F6 E9 FFFFFF69                     	JMP	L540
  2506 000018FB                                 L571:
  2507 000018FB 8B 75 24                        	MOV	ESI,DWORD [36+EBP]
  2508 000018FE 83 7D 20 00                     	CMP	DWORD [32+EBP],0
  2509 00001902 74 32                           	JE	L537
  2510 00001904 83 7D 20 01                     	CMP	DWORD [32+EBP],1
  2511 00001908 74 31                           	JE	L586
  2512 0000190A 83 7D 20 02                     	CMP	DWORD [32+EBP],2
  2513 0000190E 74 23                           	JE	L587
  2514 00001910                                 L468:
  2515 00001910 83 7E 0C 00                     	CMP	DWORD [12+ESI],0
  2516 00001914 78 14                           	JS	L588
  2517 00001916                                 L472:
  2518 00001916 8B 46 04                        	MOV	EAX,DWORD [4+ESI]
  2519 00001919 39 46 0C                        	CMP	DWORD [12+ESI],EAX
  2520 0000191C 0F 8E FFFFFD69                  	JLE	L390
  2521 00001922 89 46 0C                        	MOV	DWORD [12+ESI],EAX
  2522 00001925 E9 FFFFFD61                     	JMP	L390
  2523 0000192A                                 L588:
  2524 0000192A C7 46 0C 00000000               	MOV	DWORD [12+ESI],0
  2525 00001931 EB E3                           	JMP	L472
  2526 00001933                                 L587:
  2527 00001933 03 7E 04                        	ADD	EDI,DWORD [4+ESI]
  2528 00001936                                 L537:
  2529 00001936 89 7E 0C                        	MOV	DWORD [12+ESI],EDI
  2530 00001939 EB D5                           	JMP	L468
  2531 0000193B                                 L586:
  2532 0000193B 01 7E 0C                        	ADD	DWORD [12+ESI],EDI
  2533 0000193E EB D0                           	JMP	L468
  2534 00001940                                 L570:
  2535 00001940 8B 75 24                        	MOV	ESI,DWORD [36+EBP]
  2536 00001943 FF 76 04                        	PUSH	DWORD [4+ESI]
  2537 00001946 FF 36                           	PUSH	DWORD [ESI]
  2538 00001948 68 003C0000                     	PUSH	3932160
  2539 0000194D E8 [00000000]                   	CALL	_memman_free_4k
  2540 00001952 C7 06 00000000                  	MOV	DWORD [ESI],0
  2541 00001958                                 L541:
  2542 00001958 83 C4 0C                        	ADD	ESP,12
  2543 0000195B E9 FFFFFD2B                     	JMP	L390
  2544 00001960                                 L569:
  2545 00001960 31 DB                           	XOR	EBX,EBX
  2546 00001962 31 C0                           	XOR	EAX,EAX
  2547 00001964                                 L460:
  2548 00001964 8B 4D D0                        	MOV	ECX,DWORD [-48+EBP]
  2549 00001967 8B 91 0000011C                  	MOV	EDX,DWORD [284+ECX]
  2550 0000196D 83 3C 02 00                     	CMP	DWORD [EDX+EAX*1],0
  2551 00001971 74 09                           	JE	L456
  2552 00001973 43                              	INC	EBX
  2553 00001974 83 C0 1C                        	ADD	EAX,28
  2554 00001977 83 FB 07                        	CMP	EBX,7
  2555 0000197A 7E E8                           	JLE	L460
  2556 0000197C                                 L456:
  2557 0000197C 6B C3 1C                        	IMUL	EAX,EBX,28
  2558 0000197F C7 45 44 00000000               	MOV	DWORD [68+EBP],0
  2559 00001986 8D 34 10                        	LEA	ESI,DWORD [EAX+EDX*1]
  2560 00001989 83 FB 07                        	CMP	EBX,7
  2561 0000198C 0F 8F FFFFFCF9                  	JG	L390
  2562 00001992 8B 45 D0                        	MOV	EAX,DWORD [-48+EBP]
  2563 00001995 8B 55 CC                        	MOV	EDX,DWORD [-52+EBP]
  2564 00001998 FF B0 00000120                  	PUSH	DWORD [288+EAX]
  2565 0000199E 68 000000E0                     	PUSH	224
  2566 000019A3 8D 04 3A                        	LEA	EAX,DWORD [EDX+EDI*1]
  2567 000019A6 68 00102600                     	PUSH	1058304
  2568 000019AB 50                              	PUSH	EAX
  2569 000019AC E8 [00000000]                   	CALL	_file_search2
  2570 000019B1 83 C4 10                        	ADD	ESP,16
  2571 000019B4 89 C2                           	MOV	EDX,EAX
  2572 000019B6 85 C0                           	TEST	EAX,EAX
  2573 000019B8 0F 84 FFFFFCCD                  	JE	L390
  2574 000019BE F6 40 0B 18                     	TEST	BYTE [11+EAX],24
  2575 000019C2 0F 85 FFFFFCC3                  	JNE	L390
  2576 000019C8 89 75 44                        	MOV	DWORD [68+EBP],ESI
  2577 000019CB 8B 4D D0                        	MOV	ECX,DWORD [-48+EBP]
  2578 000019CE 8B 40 1C                        	MOV	EAX,DWORD [28+EAX]
  2579 000019D1 89 46 04                        	MOV	DWORD [4+ESI],EAX
  2580 000019D4 8B 42 1C                        	MOV	EAX,DWORD [28+EDX]
  2581 000019D7 89 46 08                        	MOV	DWORD [8+ESI],EAX
  2582 000019DA 8D 46 04                        	LEA	EAX,DWORD [4+ESI]
  2583 000019DD C7 46 0C 00000000               	MOV	DWORD [12+ESI],0
  2584 000019E4 FF B1 00000120                  	PUSH	DWORD [288+ECX]
  2585 000019EA 50                              	PUSH	EAX
  2586 000019EB 0F B7 42 1A                     	MOVZX	EAX,WORD [26+EDX]
  2587 000019EF 50                              	PUSH	EAX
  2588 000019F0 E8 [00000000]                   	CALL	_file_loadfile2
  2589 000019F5 89 06                           	MOV	DWORD [ESI],EAX
  2590 000019F7 E9 FFFFFF5C                     	JMP	L541
  2591 000019FC                                 L568:
  2592 000019FC 8B 55 24                        	MOV	EDX,DWORD [36+EBP]
  2593 000019FF 85 D2                           	TEST	EDX,EDX
  2594 00001A01 75 19                           	JNE	L451
  2595 00001A03 6A 61                           	PUSH	97
  2596 00001A05 E8 [00000000]                   	CALL	_io_in8
  2597 00001A0A 89 C3                           	MOV	EBX,EAX
  2598 00001A0C 83 E3 0D                        	AND	EBX,13
  2599 00001A0F 53                              	PUSH	EBX
  2600 00001A10 6A 61                           	PUSH	97
  2601 00001A12 E8 [00000000]                   	CALL	_io_out8
  2602 00001A17 E9 FFFFFF3C                     	JMP	L541
  2603 00001A1C                                 L451:
  2604 00001A1C B9 471E7B60                     	MOV	ECX,1193180000
  2605 00001A21 89 D6                           	MOV	ESI,EDX
  2606 00001A23 89 C8                           	MOV	EAX,ECX
  2607 00001A25 68 000000B6                     	PUSH	182
  2608 00001A2A 99                              	CDQ
  2609 00001A2B F7 FE                           	IDIV	ESI
  2610 00001A2D 6A 43                           	PUSH	67
  2611 00001A2F 89 C3                           	MOV	EBX,EAX
  2612 00001A31 E8 [00000000]                   	CALL	_io_out8
  2613 00001A36 0F B6 C3                        	MOVZX	EAX,BL
  2614 00001A39 C1 FB 08                        	SAR	EBX,8
  2615 00001A3C 50                              	PUSH	EAX
  2616 00001A3D 6A 42                           	PUSH	66
  2617 00001A3F E8 [00000000]                   	CALL	_io_out8
  2618 00001A44 53                              	PUSH	EBX
  2619 00001A45 6A 42                           	PUSH	66
  2620 00001A47 E8 [00000000]                   	CALL	_io_out8
  2621 00001A4C 6A 61                           	PUSH	97
  2622 00001A4E E8 [00000000]                   	CALL	_io_in8
  2623 00001A53 89 C3                           	MOV	EBX,EAX
  2624 00001A55 83 CB 03                        	OR	EBX,3
  2625 00001A58 83 E3 0F                        	AND	EBX,15
  2626 00001A5B 53                              	PUSH	EBX
  2627 00001A5C 6A 61                           	PUSH	97
  2628 00001A5E E8 [00000000]                   	CALL	_io_out8
  2629 00001A63 E9 FFFFFD85                     	JMP	L542
  2630 00001A68                                 L567:
  2631 00001A68 57                              	PUSH	EDI
  2632 00001A69 E8 [00000000]                   	CALL	_timer_free
  2633 00001A6E                                 L544:
  2634 00001A6E 5F                              	POP	EDI
  2635 00001A6F E9 FFFFFC17                     	JMP	L390
  2636 00001A74                                 L566:
  2637 00001A74 FF 75 24                        	PUSH	DWORD [36+EBP]
  2638 00001A77 57                              	PUSH	EDI
  2639 00001A78 E8 [00000000]                   	CALL	_timer_settime
  2640 00001A7D E9 FFFFFC6C                     	JMP	L543
  2641 00001A82                                 L565:
  2642 00001A82 8B 45 24                        	MOV	EAX,DWORD [36+EBP]
  2643 00001A85 05 00000100                     	ADD	EAX,256
  2644 00001A8A 50                              	PUSH	EAX
  2645 00001A8B 8B 45 D0                        	MOV	EAX,DWORD [-48+EBP]
  2646 00001A8E 83 C0 10                        	ADD	EAX,16
  2647 00001A91 50                              	PUSH	EAX
  2648 00001A92 57                              	PUSH	EDI
  2649 00001A93 E8 [00000000]                   	CALL	_timer_init
  2650 00001A98 E9 FFFFFEBB                     	JMP	L541
  2651 00001A9D                                 L564:
  2652 00001A9D E8 [00000000]                   	CALL	_timer_alloc
  2653 00001AA2 89 45 44                        	MOV	DWORD [68+EBP],EAX
  2654 00001AA5 C6 40 09 01                     	MOV	BYTE [9+EAX],1
  2655 00001AA9 E9 FFFFFBDD                     	JMP	L390
  2656 00001AAE                                 L430:
  2657 00001AAE E8 [00000000]                   	CALL	_io_cli
  2658 00001AB3 8B 45 D0                        	MOV	EAX,DWORD [-48+EBP]
  2659 00001AB6 83 C0 10                        	ADD	EAX,16
  2660 00001AB9 50                              	PUSH	EAX
  2661 00001ABA E8 [00000000]                   	CALL	_fifo32_status
  2662 00001ABF 5A                              	POP	EDX
  2663 00001AC0 85 C0                           	TEST	EAX,EAX
  2664 00001AC2 75 13                           	JNE	L433
  2665 00001AC4 83 7D 24 00                     	CMP	DWORD [36+EBP],0
  2666 00001AC8 0F 84 000000AD                  	JE	L434
  2667 00001ACE FF 75 D0                        	PUSH	DWORD [-48+EBP]
  2668 00001AD1 E8 [00000000]                   	CALL	_task_sleep
  2669 00001AD6 58                              	POP	EAX
  2670 00001AD7                                 L433:
  2671 00001AD7 8B 7D D0                        	MOV	EDI,DWORD [-48+EBP]
  2672 00001ADA 83 C7 10                        	ADD	EDI,16
  2673 00001ADD 57                              	PUSH	EDI
  2674 00001ADE E8 [00000000]                   	CALL	_fifo32_get
  2675 00001AE3 89 C3                           	MOV	EBX,EAX
  2676 00001AE5 E8 [00000000]                   	CALL	_io_sti
  2677 00001AEA 58                              	POP	EAX
  2678 00001AEB 83 FB 01                        	CMP	EBX,1
  2679 00001AEE 7E 69                           	JLE	L589
  2680 00001AF0                                 L436:
  2681 00001AF0 83 FB 02                        	CMP	EBX,2
  2682 00001AF3 74 5B                           	JE	L590
  2683 00001AF5                                 L437:
  2684 00001AF5 83 FB 03                        	CMP	EBX,3
  2685 00001AF8 74 4D                           	JE	L591
  2686 00001AFA                                 L438:
  2687 00001AFA 83 FB 04                        	CMP	EBX,4
  2688 00001AFD 74 14                           	JE	L592
  2689 00001AFF                                 L439:
  2690 00001AFF 8D 83 FFFFFF00                  	LEA	EAX,DWORD [-256+EBX]
  2691 00001B05 81 FB 000000FF                  	CMP	EBX,255
  2692 00001B0B 0F 8F FFFFFD53                  	JG	L540
  2693 00001B11 EB 9B                           	JMP	L430
  2694 00001B13                                 L592:
  2695 00001B13 FF 76 10                        	PUSH	DWORD [16+ESI]
  2696 00001B16 E8 [00000000]                   	CALL	_timer_cancel
  2697 00001B1B 8B 06                           	MOV	EAX,DWORD [ESI]
  2698 00001B1D 2B 45 C8                        	SUB	EAX,DWORD [-56+EBP]
  2699 00001B20 2D 00000418                     	SUB	EAX,1048
  2700 00001B25 C1 F8 03                        	SAR	EAX,3
  2701 00001B28 69 C0 CCCCCCCD                  	IMUL	EAX,EAX,-858993459
  2702 00001B2E 05 000007E8                     	ADD	EAX,2024
  2703 00001B33 50                              	PUSH	EAX
  2704 00001B34 FF 75 C4                        	PUSH	DWORD [-60+EBP]
  2705 00001B37 E8 [00000000]                   	CALL	_fifo32_put_io
  2706 00001B3C 83 C4 0C                        	ADD	ESP,12
  2707 00001B3F C7 06 00000000                  	MOV	DWORD [ESI],0
  2708 00001B45 EB B8                           	JMP	L439
  2709 00001B47                                 L591:
  2710 00001B47 C7 46 0C FFFFFFFF               	MOV	DWORD [12+ESI],-1
  2711 00001B4E EB AA                           	JMP	L438
  2712 00001B50                                 L590:
  2713 00001B50 C7 46 0C 00000007               	MOV	DWORD [12+ESI],7
  2714 00001B57 EB 9C                           	JMP	L437
  2715 00001B59                                 L589:
  2716 00001B59 83 3E 00                        	CMP	DWORD [ESI],0
  2717 00001B5C 74 92                           	JE	L436
  2718 00001B5E 6A 01                           	PUSH	1
  2719 00001B60 57                              	PUSH	EDI
  2720 00001B61 FF 76 10                        	PUSH	DWORD [16+ESI]
  2721 00001B64 E8 [00000000]                   	CALL	_timer_init
  2722 00001B69 6A 32                           	PUSH	50
  2723 00001B6B FF 76 10                        	PUSH	DWORD [16+ESI]
  2724 00001B6E E8 [00000000]                   	CALL	_timer_settime
  2725 00001B73 83 C4 14                        	ADD	ESP,20
  2726 00001B76 E9 FFFFFF75                     	JMP	L436
  2727 00001B7B                                 L434:
  2728 00001B7B E8 [00000000]                   	CALL	_io_sti
  2729 00001B80 C7 45 44 FFFFFFFF               	MOV	DWORD [68+EBP],-1
  2730 00001B87 E9 FFFFFAFF                     	JMP	L390
  2731 00001B8C                                 L563:
  2732 00001B8C 57                              	PUSH	EDI
  2733 00001B8D E8 [00000000]                   	CALL	_sheet_free
  2734 00001B92 E9 FFFFFED7                     	JMP	L544
  2735 00001B97                                 L562:
  2736 00001B97 8B 55 10                        	MOV	EDX,DWORD [16+EBP]
  2737 00001B9A 89 FE                           	MOV	ESI,EDI
  2738 00001B9C 83 E6 FE                        	AND	ESI,-2
  2739 00001B9F 0F B7 84 12 [00000000]          	MOVZX	EAX,WORD [_table_8_565+EDX+EDX*1]
  2740 00001BA7 50                              	PUSH	EAX
  2741 00001BA8 FF 75 08                        	PUSH	DWORD [8+EBP]
  2742 00001BAB FF 75 0C                        	PUSH	DWORD [12+EBP]
  2743 00001BAE FF 75 20                        	PUSH	DWORD [32+EBP]
  2744 00001BB1 FF 75 24                        	PUSH	DWORD [36+EBP]
  2745 00001BB4 56                              	PUSH	ESI
  2746 00001BB5 E8 00000327                     	CALL	_hrb_api_linewin
  2747 00001BBA 83 C4 18                        	ADD	ESP,24
  2748 00001BBD 83 E7 01                        	AND	EDI,1
  2749 00001BC0 0F 85 FFFFFAC5                  	JNE	L390
  2750 00001BC6 8B 45 24                        	MOV	EAX,DWORD [36+EBP]
  2751 00001BC9 3B 45 0C                        	CMP	EAX,DWORD [12+EBP]
  2752 00001BCC 7E 09                           	JLE	L423
  2753 00001BCE 8B 4D 0C                        	MOV	ECX,DWORD [12+EBP]
  2754 00001BD1 89 45 0C                        	MOV	DWORD [12+EBP],EAX
  2755 00001BD4 89 4D 24                        	MOV	DWORD [36+EBP],ECX
  2756 00001BD7                                 L423:
  2757 00001BD7 8B 45 08                        	MOV	EAX,DWORD [8+EBP]
  2758 00001BDA 39 45 20                        	CMP	DWORD [32+EBP],EAX
  2759 00001BDD 7E 09                           	JLE	L424
  2760 00001BDF 8B 5D 20                        	MOV	EBX,DWORD [32+EBP]
  2761 00001BE2 89 45 20                        	MOV	DWORD [32+EBP],EAX
  2762 00001BE5 89 5D 08                        	MOV	DWORD [8+EBP],EBX
  2763 00001BE8                                 L424:
  2764 00001BE8 80 7E 1C 00                     	CMP	BYTE [28+ESI],0
  2765 00001BEC 0F 88 FFFFFA99                  	JS	L390
  2766 00001BF2 8B 45 08                        	MOV	EAX,DWORD [8+EBP]
  2767 00001BF5 40                              	INC	EAX
  2768 00001BF6 50                              	PUSH	EAX
  2769 00001BF7 8B 45 0C                        	MOV	EAX,DWORD [12+EBP]
  2770 00001BFA 40                              	INC	EAX
  2771 00001BFB 50                              	PUSH	EAX
  2772 00001BFC FF 75 20                        	PUSH	DWORD [32+EBP]
  2773 00001BFF FF 75 24                        	PUSH	DWORD [36+EBP]
  2774 00001C02 E9 FFFFFB9F                     	JMP	L545
  2775 00001C07                                 L561:
  2776 00001C07 F6 47 1C 40                     	TEST	BYTE [28+EDI],64
  2777 00001C0B 75 12                           	JNE	L593
  2778 00001C0D                                 L419:
  2779 00001C0D FF 75 08                        	PUSH	DWORD [8+EBP]
  2780 00001C10 FF 75 0C                        	PUSH	DWORD [12+EBP]
  2781 00001C13 FF 75 20                        	PUSH	DWORD [32+EBP]
  2782 00001C16 FF 75 24                        	PUSH	DWORD [36+EBP]
  2783 00001C19 57                              	PUSH	EDI
  2784 00001C1A E9 FFFFFB88                     	JMP	L546
  2785 00001C1F                                 L593:
  2786 00001C1F FF 77 10                        	PUSH	DWORD [16+EDI]
  2787 00001C22 FF 77 0C                        	PUSH	DWORD [12+EDI]
  2788 00001C25 57                              	PUSH	EDI
  2789 00001C26 8D 5D D4                        	LEA	EBX,DWORD [-44+EBP]
  2790 00001C29 E8 [00000000]                   	CALL	_sheet_slide
  2791 00001C2E 8B 47 1C                        	MOV	EAX,DWORD [28+EDI]
  2792 00001C31 83 E0 BF                        	AND	EAX,-65
  2793 00001C34 89 47 1C                        	MOV	DWORD [28+EDI],EAX
  2794 00001C37 50                              	PUSH	EAX
  2795 00001C38 68 [0000013E]                   	PUSH	LC28
  2796 00001C3D 53                              	PUSH	EBX
  2797 00001C3E E8 [00000000]                   	CALL	_sprintf
  2798 00001C43 53                              	PUSH	EBX
  2799 00001C44 56                              	PUSH	ESI
  2800 00001C45 E8 FFFFE8CC                     	CALL	_cons_putstr0
  2801 00001C4A 83 C4 20                        	ADD	ESP,32
  2802 00001C4D EB BE                           	JMP	L419
  2803 00001C4F                                 L560:
  2804 00001C4F 89 FE                           	MOV	ESI,EDI
  2805 00001C51 8B 55 08                        	MOV	EDX,DWORD [8+EBP]
  2806 00001C54 83 E6 FE                        	AND	ESI,-2
  2807 00001C57 8B 45 24                        	MOV	EAX,DWORD [36+EBP]
  2808 00001C5A 0F AF 56 04                     	IMUL	EDX,DWORD [4+ESI]
  2809 00001C5E 66 8B 84 00 [00000000]          	MOV	AX,WORD [_table_8_565+EAX+EAX*1]
  2810 00001C66 03 55 0C                        	ADD	EDX,DWORD [12+EBP]
  2811 00001C69 8B 0E                           	MOV	ECX,DWORD [ESI]
  2812 00001C6B 83 E7 01                        	AND	EDI,1
  2813 00001C6E 66 89 04 51                     	MOV	WORD [ECX+EDX*2],AX
  2814 00001C72 0F 85 FFFFFA13                  	JNE	L390
  2815 00001C78 80 7E 1C 00                     	CMP	BYTE [28+ESI],0
  2816 00001C7C 0F 88 FFFFFA09                  	JS	L390
  2817 00001C82 8B 45 08                        	MOV	EAX,DWORD [8+EBP]
  2818 00001C85 40                              	INC	EAX
  2819 00001C86 50                              	PUSH	EAX
  2820 00001C87 8B 45 0C                        	MOV	EAX,DWORD [12+EBP]
  2821 00001C8A 40                              	INC	EAX
  2822 00001C8B 50                              	PUSH	EAX
  2823 00001C8C FF 75 08                        	PUSH	DWORD [8+EBP]
  2824 00001C8F FF 75 0C                        	PUSH	DWORD [12+EBP]
  2825 00001C92 E9 FFFFFB0F                     	JMP	L545
  2826 00001C97                                 L559:
  2827 00001C97 8B 45 20                        	MOV	EAX,DWORD [32+EBP]
  2828 00001C9A 8B 4D CC                        	MOV	ECX,DWORD [-52+EBP]
  2829 00001C9D 83 C0 0F                        	ADD	EAX,15
  2830 00001CA0 83 E0 F0                        	AND	EAX,-16
  2831 00001CA3 50                              	PUSH	EAX
  2832 00001CA4 8D 04 39                        	LEA	EAX,DWORD [ECX+EDI*1]
  2833 00001CA7 FF 75 24                        	PUSH	DWORD [36+EBP]
  2834 00001CAA 50                              	PUSH	EAX
  2835 00001CAB E8 [00000000]                   	CALL	_memman_free
  2836 00001CB0 E9 FFFFFCA3                     	JMP	L541
  2837 00001CB5                                 L558:
  2838 00001CB5 8B 45 20                        	MOV	EAX,DWORD [32+EBP]
  2839 00001CB8 8B 55 CC                        	MOV	EDX,DWORD [-52+EBP]
  2840 00001CBB 83 C0 0F                        	ADD	EAX,15
  2841 00001CBE 83 E0 F0                        	AND	EAX,-16
  2842 00001CC1 50                              	PUSH	EAX
  2843 00001CC2 8D 04 3A                        	LEA	EAX,DWORD [EDX+EDI*1]
  2844 00001CC5 50                              	PUSH	EAX
  2845 00001CC6 E8 [00000000]                   	CALL	_memman_alloc
  2846 00001CCB 89 45 44                        	MOV	DWORD [68+EBP],EAX
  2847 00001CCE E9 FFFFFA1B                     	JMP	L543
  2848 00001CD3                                 L557:
  2849 00001CD3 8B 75 CC                        	MOV	ESI,DWORD [-52+EBP]
  2850 00001CD6 8D 1C 3E                        	LEA	EBX,DWORD [ESI+EDI*1]
  2851 00001CD9 53                              	PUSH	EBX
  2852 00001CDA E8 [00000000]                   	CALL	_memman_init
  2853 00001CDF 83 65 20 F0                     	AND	DWORD [32+EBP],-16
  2854 00001CE3 FF 75 20                        	PUSH	DWORD [32+EBP]
  2855 00001CE6 FF 75 24                        	PUSH	DWORD [36+EBP]
  2856 00001CE9 53                              	PUSH	EBX
  2857 00001CEA E8 [00000000]                   	CALL	_memman_free
  2858 00001CEF E9 FFFFF9E4                     	JMP	L547
  2859 00001CF4                                 L556:
  2860 00001CF4 FF 75 08                        	PUSH	DWORD [8+EBP]
  2861 00001CF7 FF 75 0C                        	PUSH	DWORD [12+EBP]
  2862 00001CFA FF 75 20                        	PUSH	DWORD [32+EBP]
  2863 00001CFD 89 FE                           	MOV	ESI,EDI
  2864 00001CFF FF 75 24                        	PUSH	DWORD [36+EBP]
  2865 00001D02 83 E6 FE                        	AND	ESI,-2
  2866 00001D05 0F B6 45 10                     	MOVZX	EAX,BYTE [16+EBP]
  2867 00001D09 50                              	PUSH	EAX
  2868 00001D0A FF 76 04                        	PUSH	DWORD [4+ESI]
  2869 00001D0D FF 36                           	PUSH	DWORD [ESI]
  2870 00001D0F E8 [00000000]                   	CALL	_boxfill8
  2871 00001D14 83 C4 1C                        	ADD	ESP,28
  2872 00001D17 83 E7 01                        	AND	EDI,1
  2873 00001D1A 0F 85 FFFFF96B                  	JNE	L390
  2874 00001D20 E9 FFFFFEC3                     	JMP	L424
  2875 00001D25                                 L555:
  2876 00001D25 8B 45 10                        	MOV	EAX,DWORD [16+EBP]
  2877 00001D28 89 FE                           	MOV	ESI,EDI
  2878 00001D2A 03 45 CC                        	ADD	EAX,DWORD [-52+EBP]
  2879 00001D2D 83 E6 FE                        	AND	ESI,-2
  2880 00001D30 50                              	PUSH	EAX
  2881 00001D31 6A 01                           	PUSH	1
  2882 00001D33 0F B6 45 24                     	MOVZX	EAX,BYTE [36+EBP]
  2883 00001D37 50                              	PUSH	EAX
  2884 00001D38 FF 75 08                        	PUSH	DWORD [8+EBP]
  2885 00001D3B FF 75 0C                        	PUSH	DWORD [12+EBP]
  2886 00001D3E FF 76 04                        	PUSH	DWORD [4+ESI]
  2887 00001D41 FF 36                           	PUSH	DWORD [ESI]
  2888 00001D43 E8 [00000000]                   	CALL	_putfonts8_asc
  2889 00001D48 83 C4 1C                        	ADD	ESP,28
  2890 00001D4B 83 E7 01                        	AND	EDI,1
  2891 00001D4E 0F 85 FFFFF937                  	JNE	L390
  2892 00001D54 80 7E 1C 00                     	CMP	BYTE [28+ESI],0
  2893 00001D58 0F 88 FFFFF92D                  	JS	L390
  2894 00001D5E 8B 45 08                        	MOV	EAX,DWORD [8+EBP]
  2895 00001D61 8B 55 20                        	MOV	EDX,DWORD [32+EBP]
  2896 00001D64 8B 4D 0C                        	MOV	ECX,DWORD [12+EBP]
  2897 00001D67 83 C0 10                        	ADD	EAX,16
  2898 00001D6A 50                              	PUSH	EAX
  2899 00001D6B 8D 04 D1                        	LEA	EAX,DWORD [ECX+EDX*8]
  2900 00001D6E E9 FFFFFA2E                     	JMP	L549
  2901 00001D73                                 L554:
  2902 00001D73 FF 75 C8                        	PUSH	DWORD [-56+EBP]
  2903 00001D76 E8 [00000000]                   	CALL	_sheet_alloc
  2904 00001D7B 89 C6                           	MOV	ESI,EAX
  2905 00001D7D 8B 45 D0                        	MOV	EAX,DWORD [-48+EBP]
  2906 00001D80 8B 56 1C                        	MOV	EDX,DWORD [28+ESI]
  2907 00001D83 89 46 24                        	MOV	DWORD [36+ESI],EAX
  2908 00001D86 89 D0                           	MOV	EAX,EDX
  2909 00001D88 83 C8 10                        	OR	EAX,16
  2910 00001D8B 89 46 1C                        	MOV	DWORD [28+ESI],EAX
  2911 00001D8E 59                              	POP	ECX
  2912 00001D8F 83 7D 24 FF                     	CMP	DWORD [36+EBP],-1
  2913 00001D93 74 06                           	JE	L398
  2914 00001D95 83 CA 50                        	OR	EDX,80
  2915 00001D98 89 56 1C                        	MOV	DWORD [28+ESI],EDX
  2916 00001D9B                                 L398:
  2917 00001D9B FF 75 24                        	PUSH	DWORD [36+EBP]
  2918 00001D9E 8B 55 CC                        	MOV	EDX,DWORD [-52+EBP]
  2919 00001DA1 FF 75 08                        	PUSH	DWORD [8+EBP]
  2920 00001DA4 FF 75 0C                        	PUSH	DWORD [12+EBP]
  2921 00001DA7 8D 1C 3A                        	LEA	EBX,DWORD [EDX+EDI*1]
  2922 00001DAA 53                              	PUSH	EBX
  2923 00001DAB 56                              	PUSH	ESI
  2924 00001DAC E8 [00000000]                   	CALL	_sheet_setbuf
  2925 00001DB1 8B 45 20                        	MOV	EAX,DWORD [32+EBP]
  2926 00001DB4 03 45 CC                        	ADD	EAX,DWORD [-52+EBP]
  2927 00001DB7 6A 00                           	PUSH	0
  2928 00001DB9 50                              	PUSH	EAX
  2929 00001DBA FF 75 08                        	PUSH	DWORD [8+EBP]
  2930 00001DBD FF 75 0C                        	PUSH	DWORD [12+EBP]
  2931 00001DC0 53                              	PUSH	EBX
  2932 00001DC1 BB 00000002                     	MOV	EBX,2
  2933 00001DC6 E8 [00000000]                   	CALL	_make_window8
  2934 00001DCB 8B 4D C8                        	MOV	ECX,DWORD [-56+EBP]
  2935 00001DCE 83 C4 28                        	ADD	ESP,40
  2936 00001DD1 8B 41 0C                        	MOV	EAX,DWORD [12+ECX]
  2937 00001DD4 2B 45 08                        	SUB	EAX,DWORD [8+EBP]
  2938 00001DD7 99                              	CDQ
  2939 00001DD8 F7 FB                           	IDIV	EBX
  2940 00001DDA 50                              	PUSH	EAX
  2941 00001DDB 8B 41 08                        	MOV	EAX,DWORD [8+ECX]
  2942 00001DDE 2B 45 0C                        	SUB	EAX,DWORD [12+EBP]
  2943 00001DE1 99                              	CDQ
  2944 00001DE2 F7 FB                           	IDIV	EBX
  2945 00001DE4 83 E0 FC                        	AND	EAX,-4
  2946 00001DE7 50                              	PUSH	EAX
  2947 00001DE8 56                              	PUSH	ESI
  2948 00001DE9 E8 [00000000]                   	CALL	_sheet_slide
  2949 00001DEE 8B 4D C8                        	MOV	ECX,DWORD [-56+EBP]
  2950 00001DF1 FF 71 10                        	PUSH	DWORD [16+ECX]
  2951 00001DF4 56                              	PUSH	ESI
  2952 00001DF5 E8 [00000000]                   	CALL	_sheet_updown
  2953 00001DFA 56                              	PUSH	ESI
  2954 00001DFB E8 [00000000]                   	CALL	_keywin_on
  2955 00001E00 83 C4 18                        	ADD	ESP,24
  2956 00001E03 89 75 44                        	MOV	DWORD [68+EBP],ESI
  2957 00001E06 E9 FFFFF880                     	JMP	L390
  2958 00001E0B                                 L553:
  2959 00001E0B 8B 45 D0                        	MOV	EAX,DWORD [-48+EBP]
  2960 00001E0E 83 C0 30                        	ADD	EAX,48
  2961 00001E11 E9 FFFFF877                     	JMP	L388
  2962 00001E16                                 L552:
  2963 00001E16 8B 4D CC                        	MOV	ECX,DWORD [-52+EBP]
  2964 00001E19 FF 75 20                        	PUSH	DWORD [32+EBP]
  2965 00001E1C 8D 04 39                        	LEA	EAX,DWORD [ECX+EDI*1]
  2966 00001E1F 50                              	PUSH	EAX
  2967 00001E20 56                              	PUSH	ESI
  2968 00001E21 E8 FFFFE71E                     	CALL	_cons_putstr1
  2969 00001E26 E9 FFFFFB2D                     	JMP	L541
  2970 00001E2B                                 L551:
  2971 00001E2B 8B 55 CC                        	MOV	EDX,DWORD [-52+EBP]
  2972 00001E2E 8D 04 3A                        	LEA	EAX,DWORD [EDX+EDI*1]
  2973 00001E31 50                              	PUSH	EAX
  2974 00001E32 56                              	PUSH	ESI
  2975 00001E33 E8 FFFFE6DE                     	CALL	_cons_putstr0
  2976 00001E38 E9 FFFFF8B1                     	JMP	L543
  2977 00001E3D                                 L550:
  2978 00001E3D 6A 01                           	PUSH	1
  2979 00001E3F 0F B6 45 24                     	MOVZX	EAX,BYTE [36+EBP]
  2980 00001E43 50                              	PUSH	EAX
  2981 00001E44 56                              	PUSH	ESI
  2982 00001E45 E8 FFFFE51D                     	CALL	_cons_putchar
  2983 00001E4A E9 FFFFFB09                     	JMP	L541
  2984                                          [SECTION .data]
  2985 0000014A                                 LC29:
  2986 0000014A 0A 49 4E 54 20 30 43 20 3A 0A   	DB	0x0A,"INT 0C :",0x0A," Stack Exception.",0x0A,0x00
       00000154 20 53 74 61 63 6B 20 45 78 63 
       0000015E 65 70 74 69 6F 6E 2E 0A 00 
  2987 00000167                                 LC30:
  2988 00000167 45 49 50 20 3D 20 25 30 38 58   	DB	"EIP = %08X",0x0A,0x00
       00000171 0A 00 
  2989                                          [SECTION .text]
  2990 00001E4F                                 	GLOBAL	_inthandler0c
  2991 00001E4F                                 _inthandler0c:
  2992 00001E4F 55                              	PUSH	EBP
  2993 00001E50 89 E5                           	MOV	EBP,ESP
  2994 00001E52 57                              	PUSH	EDI
  2995 00001E53 56                              	PUSH	ESI
  2996 00001E54 53                              	PUSH	EBX
  2997 00001E55 8D 5D D4                        	LEA	EBX,DWORD [-44+EBP]
  2998 00001E58 83 EC 20                        	SUB	ESP,32
  2999 00001E5B E8 [00000000]                   	CALL	_task_now
  3000 00001E60 89 C6                           	MOV	ESI,EAX
  3001 00001E62 8B B8 00000110                  	MOV	EDI,DWORD [272+EAX]
  3002 00001E68 83 C6 30                        	ADD	ESI,48
  3003 00001E6B 68 [0000014A]                   	PUSH	LC29
  3004 00001E70 57                              	PUSH	EDI
  3005 00001E71 E8 FFFFE6A0                     	CALL	_cons_putstr0
  3006 00001E76 8B 45 08                        	MOV	EAX,DWORD [8+EBP]
  3007 00001E79 FF 70 2C                        	PUSH	DWORD [44+EAX]
  3008 00001E7C 68 [00000167]                   	PUSH	LC30
  3009 00001E81 53                              	PUSH	EBX
  3010 00001E82 E8 [00000000]                   	CALL	_sprintf
  3011 00001E87 53                              	PUSH	EBX
  3012 00001E88 57                              	PUSH	EDI
  3013 00001E89 E8 FFFFE688                     	CALL	_cons_putstr0
  3014 00001E8E 8D 65 F4                        	LEA	ESP,DWORD [-12+EBP]
  3015 00001E91 5B                              	POP	EBX
  3016 00001E92 89 F0                           	MOV	EAX,ESI
  3017 00001E94 5E                              	POP	ESI
  3018 00001E95 5F                              	POP	EDI
  3019 00001E96 5D                              	POP	EBP
  3020 00001E97 C3                              	RET
  3021                                          [SECTION .data]
  3022 00000173                                 LC31:
  3023 00000173 0A 49 4E 54 20 30 44 20 3A 0A   	DB	0x0A,"INT 0D :",0x0A," General Protected Exception.",0x0A,0x00
       0000017D 20 47 65 6E 65 72 61 6C 20 50 
       00000187 72 6F 74 65 63 74 65 64 20 45 
       00000191 78 63 65 70 74 69 6F 6E 2E 0A 
       0000019B 00 
  3024                                          [SECTION .text]
  3025 00001E98                                 	GLOBAL	_inthandler0d
  3026 00001E98                                 _inthandler0d:
  3027 00001E98 55                              	PUSH	EBP
  3028 00001E99 89 E5                           	MOV	EBP,ESP
  3029 00001E9B 57                              	PUSH	EDI
  3030 00001E9C 56                              	PUSH	ESI
  3031 00001E9D 53                              	PUSH	EBX
  3032 00001E9E 8D 5D D4                        	LEA	EBX,DWORD [-44+EBP]
  3033 00001EA1 83 EC 20                        	SUB	ESP,32
  3034 00001EA4 E8 [00000000]                   	CALL	_task_now
  3035 00001EA9 89 C6                           	MOV	ESI,EAX
  3036 00001EAB 8B B8 00000110                  	MOV	EDI,DWORD [272+EAX]
  3037 00001EB1 83 C6 30                        	ADD	ESI,48
  3038 00001EB4 68 [00000173]                   	PUSH	LC31
  3039 00001EB9 57                              	PUSH	EDI
  3040 00001EBA E8 FFFFE657                     	CALL	_cons_putstr0
  3041 00001EBF 8B 45 08                        	MOV	EAX,DWORD [8+EBP]
  3042 00001EC2 FF 70 2C                        	PUSH	DWORD [44+EAX]
  3043 00001EC5 68 [00000167]                   	PUSH	LC30
  3044 00001ECA 53                              	PUSH	EBX
  3045 00001ECB E8 [00000000]                   	CALL	_sprintf
  3046 00001ED0 53                              	PUSH	EBX
  3047 00001ED1 57                              	PUSH	EDI
  3048 00001ED2 E8 FFFFE63F                     	CALL	_cons_putstr0
  3049 00001ED7 8D 65 F4                        	LEA	ESP,DWORD [-12+EBP]
  3050 00001EDA 5B                              	POP	EBX
  3051 00001EDB 89 F0                           	MOV	EAX,ESI
  3052 00001EDD 5E                              	POP	ESI
  3053 00001EDE 5F                              	POP	EDI
  3054 00001EDF 5D                              	POP	EBP
  3055 00001EE0 C3                              	RET
  3056 00001EE1                                 	GLOBAL	_hrb_api_linewin
  3057 00001EE1                                 _hrb_api_linewin:
  3058 00001EE1 55                              	PUSH	EBP
  3059 00001EE2 89 E5                           	MOV	EBP,ESP
  3060 00001EE4 57                              	PUSH	EDI
  3061 00001EE5 56                              	PUSH	ESI
  3062 00001EE6 53                              	PUSH	EBX
  3063 00001EE7 83 EC 0C                        	SUB	ESP,12
  3064 00001EEA 8B 7D 0C                        	MOV	EDI,DWORD [12+EBP]
  3065 00001EED 8B 45 14                        	MOV	EAX,DWORD [20+EBP]
  3066 00001EF0 89 F9                           	MOV	ECX,EDI
  3067 00001EF2 8B 55 18                        	MOV	EDX,DWORD [24+EBP]
  3068 00001EF5 C1 E1 0A                        	SAL	ECX,10
  3069 00001EF8 89 D6                           	MOV	ESI,EDX
  3070 00001EFA 89 4D F0                        	MOV	DWORD [-16+EBP],ECX
  3071 00001EFD 89 C3                           	MOV	EBX,EAX
  3072 00001EFF 8B 4D 10                        	MOV	ECX,DWORD [16+EBP]
  3073 00001F02 2B 75 10                        	SUB	ESI,DWORD [16+EBP]
  3074 00001F05 C1 E1 0A                        	SAL	ECX,10
  3075 00001F08 29 FB                           	SUB	EBX,EDI
  3076 00001F0A 89 4D EC                        	MOV	DWORD [-20+EBP],ECX
  3077 00001F0D 0F 88 000000A7                  	JS	L618
  3078 00001F13                                 L597:
  3079 00001F13 85 F6                           	TEST	ESI,ESI
  3080 00001F15 0F 88 00000098                  	JS	L619
  3081 00001F1B                                 L598:
  3082 00001F1B 39 F3                           	CMP	EBX,ESI
  3083 00001F1D 7C 66                           	JL	L599
  3084 00001F1F 8D 4B 01                        	LEA	ECX,DWORD [1+EBX]
  3085 00001F22 39 C7                           	CMP	EDI,EAX
  3086 00001F24 BB FFFFFC00                     	MOV	EBX,-1024
  3087 00001F29 7F 05                           	JG	L601
  3088 00001F2B BB 00000400                     	MOV	EBX,1024
  3089 00001F30                                 L601:
  3090 00001F30 39 55 10                        	CMP	DWORD [16+EBP],EDX
  3091 00001F33 7F 4A                           	JG	L602
  3092 00001F35 2B 55 10                        	SUB	EDX,DWORD [16+EBP]
  3093 00001F38 42                              	INC	EDX
  3094 00001F39                                 L617:
  3095 00001F39 C1 E2 0A                        	SAL	EDX,10
  3096 00001F3C 89 D0                           	MOV	EAX,EDX
  3097 00001F3E 99                              	CDQ
  3098 00001F3F F7 F9                           	IDIV	ECX
  3099 00001F41 89 C6                           	MOV	ESI,EAX
  3100 00001F43                                 L604:
  3101 00001F43 85 C9                           	TEST	ECX,ECX
  3102 00001F45 7E 30                           	JLE	L615
  3103 00001F47 8B 55 08                        	MOV	EDX,DWORD [8+EBP]
  3104 00001F4A 8B 45 08                        	MOV	EAX,DWORD [8+EBP]
  3105 00001F4D 8B 52 04                        	MOV	EDX,DWORD [4+EDX]
  3106 00001F50 8B 38                           	MOV	EDI,DWORD [EAX]
  3107 00001F52 89 55 E8                        	MOV	DWORD [-24+EBP],EDX
  3108 00001F55                                 L613:
  3109 00001F55 8B 45 EC                        	MOV	EAX,DWORD [-20+EBP]
  3110 00001F58 8B 55 F0                        	MOV	EDX,DWORD [-16+EBP]
  3111 00001F5B C1 F8 0A                        	SAR	EAX,10
  3112 00001F5E 01 75 EC                        	ADD	DWORD [-20+EBP],ESI
  3113 00001F61 C1 FA 0A                        	SAR	EDX,10
  3114 00001F64 01 5D F0                        	ADD	DWORD [-16+EBP],EBX
  3115 00001F67 0F AF 45 E8                     	IMUL	EAX,DWORD [-24+EBP]
  3116 00001F6B 01 D0                           	ADD	EAX,EDX
  3117 00001F6D 49                              	DEC	ECX
  3118 00001F6E 8B 55 1C                        	MOV	EDX,DWORD [28+EBP]
  3119 00001F71 66 89 14 47                     	MOV	WORD [EDI+EAX*2],DX
  3120 00001F75 75 DE                           	JNE	L613
  3121 00001F77                                 L615:
  3122 00001F77 83 C4 0C                        	ADD	ESP,12
  3123 00001F7A 5B                              	POP	EBX
  3124 00001F7B 5E                              	POP	ESI
  3125 00001F7C 5F                              	POP	EDI
  3126 00001F7D 5D                              	POP	EBP
  3127 00001F7E C3                              	RET
  3128 00001F7F                                 L602:
  3129 00001F7F 2B 55 10                        	SUB	EDX,DWORD [16+EBP]
  3130 00001F82 4A                              	DEC	EDX
  3131 00001F83 EB B4                           	JMP	L617
  3132 00001F85                                 L599:
  3133 00001F85 8D 4E 01                        	LEA	ECX,DWORD [1+ESI]
  3134 00001F88 39 55 10                        	CMP	DWORD [16+EBP],EDX
  3135 00001F8B BE FFFFFC00                     	MOV	ESI,-1024
  3136 00001F90 7F 05                           	JG	L606
  3137 00001F92 BE 00000400                     	MOV	ESI,1024
  3138 00001F97                                 L606:
  3139 00001F97 39 C7                           	CMP	EDI,EAX
  3140 00001F99 7F 11                           	JG	L607
  3141 00001F9B 29 F8                           	SUB	EAX,EDI
  3142 00001F9D 8D 50 01                        	LEA	EDX,DWORD [1+EAX]
  3143 00001FA0                                 L616:
  3144 00001FA0 C1 E2 0A                        	SAL	EDX,10
  3145 00001FA3 89 D0                           	MOV	EAX,EDX
  3146 00001FA5 99                              	CDQ
  3147 00001FA6 F7 F9                           	IDIV	ECX
  3148 00001FA8 89 C3                           	MOV	EBX,EAX
  3149 00001FAA EB 97                           	JMP	L604
  3150 00001FAC                                 L607:
  3151 00001FAC 29 F8                           	SUB	EAX,EDI
  3152 00001FAE 8D 50 FF                        	LEA	EDX,DWORD [-1+EAX]
  3153 00001FB1 EB ED                           	JMP	L616
  3154 00001FB3                                 L619:
  3155 00001FB3 F7 DE                           	NEG	ESI
  3156 00001FB5 E9 FFFFFF61                     	JMP	L598
  3157 00001FBA                                 L618:
  3158 00001FBA F7 DB                           	NEG	EBX
  3159 00001FBC E9 FFFFFF52                     	JMP	L597
  3160 00001FC1                                 	GLOBAL	_hrb_api_bitblt
  3161 00001FC1                                 _hrb_api_bitblt:
  3162 00001FC1 55                              	PUSH	EBP
  3163 00001FC2 89 E5                           	MOV	EBP,ESP
  3164 00001FC4 57                              	PUSH	EDI
  3165 00001FC5 56                              	PUSH	ESI
  3166 00001FC6 53                              	PUSH	EBX
  3167 00001FC7 83 EC 10                        	SUB	ESP,16
  3168 00001FCA 8B 55 08                        	MOV	EDX,DWORD [8+EBP]
  3169 00001FCD 8B 45 20                        	MOV	EAX,DWORD [32+EBP]
  3170 00001FD0 83 E2 FE                        	AND	EDX,-2
  3171 00001FD3 89 45 F0                        	MOV	DWORD [-16+EBP],EAX
  3172 00001FD6 8B 7D 24                        	MOV	EDI,DWORD [36+EBP]
  3173 00001FD9 89 55 EC                        	MOV	DWORD [-20+EBP],EDX
  3174 00001FDC 83 C8 FF                        	OR	EAX,-1
  3175 00001FDF 83 7D 0C 00                     	CMP	DWORD [12+EBP],0
  3176 00001FE3 0F 84 0000008A                  	JE	L620
  3177 00001FE9 8B 45 F0                        	MOV	EAX,DWORD [-16+EBP]
  3178 00001FEC 8B 4D EC                        	MOV	ECX,DWORD [-20+EBP]
  3179 00001FEF 03 45 10                        	ADD	EAX,DWORD [16+EBP]
  3180 00001FF2 8B 49 04                        	MOV	ECX,DWORD [4+ECX]
  3181 00001FF5 89 4D E8                        	MOV	DWORD [-24+EBP],ECX
  3182 00001FF8 39 C8                           	CMP	EAX,ECX
  3183 00001FFA 7E 03                           	JLE	L622
  3184 00001FFC 89 4D F0                        	MOV	DWORD [-16+EBP],ECX
  3185 00001FFF                                 L622:
  3186 00001FFF 8B 55 14                        	MOV	EDX,DWORD [20+EBP]
  3187 00002002 8B 4D EC                        	MOV	ECX,DWORD [-20+EBP]
  3188 00002005 8D 04 3A                        	LEA	EAX,DWORD [EDX+EDI*1]
  3189 00002008 8B 51 08                        	MOV	EDX,DWORD [8+ECX]
  3190 0000200B 39 D0                           	CMP	EAX,EDX
  3191 0000200D 7E 02                           	JLE	L623
  3192 0000200F 89 D7                           	MOV	EDI,EDX
  3193 00002011                                 L623:
  3194 00002011 31 F6                           	XOR	ESI,ESI
  3195 00002013 39 FE                           	CMP	ESI,EDI
  3196 00002015 7D 48                           	JGE	L637
  3197 00002017                                 L633:
  3198 00002017 31 DB                           	XOR	EBX,EBX
  3199 00002019 3B 5D F0                        	CMP	EBX,DWORD [-16+EBP]
  3200 0000201C 7D 3C                           	JGE	L639
  3201 0000201E 8B 45 EC                        	MOV	EAX,DWORD [-20+EBP]
  3202 00002021 8B 00                           	MOV	EAX,DWORD [EAX]
  3203 00002023 89 45 E4                        	MOV	DWORD [-28+EBP],EAX
  3204 00002026                                 L632:
  3205 00002026 8B 4D 14                        	MOV	ECX,DWORD [20+EBP]
  3206 00002029 8B 45 10                        	MOV	EAX,DWORD [16+EBP]
  3207 0000202C 01 F1                           	ADD	ECX,ESI
  3208 0000202E 01 D8                           	ADD	EAX,EBX
  3209 00002030 0F AF 4D E8                     	IMUL	ECX,DWORD [-24+EBP]
  3210 00002034 01 C1                           	ADD	ECX,EAX
  3211 00002036 8B 55 18                        	MOV	EDX,DWORD [24+EBP]
  3212 00002039 8B 45 1C                        	MOV	EAX,DWORD [28+EBP]
  3213 0000203C 01 DA                           	ADD	EDX,EBX
  3214 0000203E 01 F0                           	ADD	EAX,ESI
  3215 00002040 43                              	INC	EBX
  3216 00002041 0F AF 45 28                     	IMUL	EAX,DWORD [40+EBP]
  3217 00002045 01 D0                           	ADD	EAX,EDX
  3218 00002047 3B 5D F0                        	CMP	EBX,DWORD [-16+EBP]
  3219 0000204A 8B 55 0C                        	MOV	EDX,DWORD [12+EBP]
  3220 0000204D 66 8B 04 42                     	MOV	AX,WORD [EDX+EAX*2]
  3221 00002051 8B 55 E4                        	MOV	EDX,DWORD [-28+EBP]
  3222 00002054 66 89 04 4A                     	MOV	WORD [EDX+ECX*2],AX
  3223 00002058 7C CC                           	JL	L632
  3224 0000205A                                 L639:
  3225 0000205A 46                              	INC	ESI
  3226 0000205B 39 FE                           	CMP	ESI,EDI
  3227 0000205D 7C B8                           	JL	L633
  3228 0000205F                                 L637:
  3229 0000205F F7 45 08 00000001               	TEST	DWORD [8+EBP],1
  3230 00002066 75 09                           	JNE	L634
  3231 00002068 8B 4D EC                        	MOV	ECX,DWORD [-20+EBP]
  3232 0000206B 80 79 1C 00                     	CMP	BYTE [28+ECX],0
  3233 0000206F 79 0A                           	JNS	L640
  3234 00002071                                 L634:
  3235 00002071 31 C0                           	XOR	EAX,EAX
  3236 00002073                                 L620:
  3237 00002073 8D 65 F4                        	LEA	ESP,DWORD [-12+EBP]
  3238 00002076 5B                              	POP	EBX
  3239 00002077 5E                              	POP	ESI
  3240 00002078 5F                              	POP	EDI
  3241 00002079 5D                              	POP	EBP
  3242 0000207A C3                              	RET
  3243 0000207B                                 L640:
  3244 0000207B 57                              	PUSH	EDI
  3245 0000207C FF 75 F0                        	PUSH	DWORD [-16+EBP]
  3246 0000207F FF 75 14                        	PUSH	DWORD [20+EBP]
  3247 00002082 FF 75 10                        	PUSH	DWORD [16+EBP]
  3248 00002085 51                              	PUSH	ECX
  3249 00002086 E8 [00000000]                   	CALL	_sheet_refresh
  3250 0000208B 83 C4 14                        	ADD	ESP,20
  3251 0000208E EB E1                           	JMP	L634
  3252 00002090                                 	GLOBAL	_hrb_api_fopen
  3253 00002090                                 _hrb_api_fopen:
  3254 00002090 55                              	PUSH	EBP
  3255 00002091 89 E5                           	MOV	EBP,ESP
  3256 00002093 57                              	PUSH	EDI
  3257 00002094 56                              	PUSH	ESI
  3258 00002095 8B 75 10                        	MOV	ESI,DWORD [16+EBP]
  3259 00002098 53                              	PUSH	EBX
  3260 00002099 8B 7D 14                        	MOV	EDI,DWORD [20+EBP]
  3261 0000209C C7 46 08 00001000               	MOV	DWORD [8+ESI],4096
  3262 000020A3 C7 46 0C 00000000               	MOV	DWORD [12+ESI],0
  3263 000020AA C7 46 10 00000000               	MOV	DWORD [16+ESI],0
  3264 000020B1 C7 46 14 00000000               	MOV	DWORD [20+ESI],0
  3265 000020B8 68 00001000                     	PUSH	4096
  3266 000020BD 68 003C0000                     	PUSH	3932160
  3267 000020C2 E8 [00000000]                   	CALL	_memman_alloc_4k
  3268 000020C7 89 06                           	MOV	DWORD [ESI],EAX
  3269 000020C9 57                              	PUSH	EDI
  3270 000020CA 68 000000E0                     	PUSH	224
  3271 000020CF 68 00102600                     	PUSH	1058304
  3272 000020D4 FF 75 08                        	PUSH	DWORD [8+EBP]
  3273 000020D7 E8 [00000000]                   	CALL	_file_search2
  3274 000020DC 83 C4 18                        	ADD	ESP,24
  3275 000020DF 89 C3                           	MOV	EBX,EAX
  3276 000020E1 85 C0                           	TEST	EAX,EAX
  3277 000020E3 74 32                           	JE	L642
  3278 000020E5 F6 40 0B 18                     	TEST	BYTE [11+EAX],24
  3279 000020E9 74 0A                           	JE	L643
  3280 000020EB 31 C0                           	XOR	EAX,EAX
  3281 000020ED                                 L641:
  3282 000020ED 8D 65 F4                        	LEA	ESP,DWORD [-12+EBP]
  3283 000020F0 5B                              	POP	EBX
  3284 000020F1 5E                              	POP	ESI
  3285 000020F2 5F                              	POP	EDI
  3286 000020F3 5D                              	POP	EBP
  3287 000020F4 C3                              	RET
  3288 000020F5                                 L643:
  3289 000020F5 89 46 18                        	MOV	DWORD [24+ESI],EAX
  3290 000020F8 FF 75 0C                        	PUSH	DWORD [12+EBP]
  3291 000020FB 68 00103E00                     	PUSH	1064448
  3292 00002100 57                              	PUSH	EDI
  3293 00002101 FF 70 1C                        	PUSH	DWORD [28+EAX]
  3294 00002104 56                              	PUSH	ESI
  3295 00002105 E8 [00000000]                   	CALL	_file_skipfile
  3296 0000210A 83 C4 14                        	ADD	ESP,20
  3297 0000210D                                 L644:
  3298 0000210D 8B 43 1C                        	MOV	EAX,DWORD [28+EBX]
  3299 00002110 89 46 04                        	MOV	DWORD [4+ESI],EAX
  3300 00002113 89 F0                           	MOV	EAX,ESI
  3301 00002115 EB D6                           	JMP	L641
  3302 00002117                                 L642:
  3303 00002117 57                              	PUSH	EDI
  3304 00002118 68 000000E0                     	PUSH	224
  3305 0000211D 68 00102600                     	PUSH	1058304
  3306 00002122 FF 75 08                        	PUSH	DWORD [8+EBP]
  3307 00002125 E8 [00000000]                   	CALL	_file_insert
  3308 0000212A 83 C4 10                        	ADD	ESP,16
  3309 0000212D 89 C3                           	MOV	EBX,EAX
  3310 0000212F 31 C0                           	XOR	EAX,EAX
  3311 00002131 85 DB                           	TEST	EBX,EBX
  3312 00002133 74 B8                           	JE	L641
  3313 00002135 89 5E 18                        	MOV	DWORD [24+ESI],EBX
  3314 00002138 EB D3                           	JMP	L644
  3315 0000213A                                 	GLOBAL	_hrb_api_fclose
  3316 0000213A                                 _hrb_api_fclose:
  3317 0000213A 55                              	PUSH	EBP
  3318 0000213B 89 E5                           	MOV	EBP,ESP
  3319 0000213D 53                              	PUSH	EBX
  3320 0000213E 8B 5D 08                        	MOV	EBX,DWORD [8+EBP]
  3321 00002141 8B 43 10                        	MOV	EAX,DWORD [16+EBX]
  3322 00002144 85 C0                           	TEST	EAX,EAX
  3323 00002146 75 1A                           	JNE	L648
  3324 00002148                                 L647:
  3325 00002148 FF 73 08                        	PUSH	DWORD [8+EBX]
  3326 0000214B FF 33                           	PUSH	DWORD [EBX]
  3327 0000214D 68 003C0000                     	PUSH	3932160
  3328 00002152 E8 [00000000]                   	CALL	_memman_free_4k
  3329 00002157 C7 03 00000000                  	MOV	DWORD [EBX],0
  3330 0000215D 8B 5D FC                        	MOV	EBX,DWORD [-4+EBP]
  3331 00002160 C9                              	LEAVE
  3332 00002161 C3                              	RET
  3333 00002162                                 L648:
  3334 00002162 68 00103E00                     	PUSH	1064448
  3335 00002167 FF 75 0C                        	PUSH	DWORD [12+EBP]
  3336 0000216A 50                              	PUSH	EAX
  3337 0000216B 53                              	PUSH	EBX
  3338 0000216C E8 [00000000]                   	CALL	_file_savefile
  3339 00002171 83 C4 10                        	ADD	ESP,16
  3340 00002174 EB D2                           	JMP	L647
  3341 00002176                                 	GLOBAL	_hrb_api_fwrite
  3342 00002176                                 _hrb_api_fwrite:
  3343 00002176 55                              	PUSH	EBP
  3344 00002177 89 E5                           	MOV	EBP,ESP
  3345 00002179 57                              	PUSH	EDI
  3346 0000217A 56                              	PUSH	ESI
  3347 0000217B 53                              	PUSH	EBX
  3348 0000217C 53                              	PUSH	EBX
  3349 0000217D 53                              	PUSH	EBX
  3350 0000217E 8B 75 08                        	MOV	ESI,DWORD [8+EBP]
  3351 00002181 8B 5D 0C                        	MOV	EBX,DWORD [12+EBP]
  3352 00002184 C7 45 EC 00000000               	MOV	DWORD [-20+EBP],0
  3353 0000218B                                 L655:
  3354 0000218B 8B 45 10                        	MOV	EAX,DWORD [16+EBP]
  3355 0000218E 8B 50 10                        	MOV	EDX,DWORD [16+EAX]
  3356 00002191 8D 04 13                        	LEA	EAX,DWORD [EBX+EDX*1]
  3357 00002194 3D 00000FFF                     	CMP	EAX,4095
  3358 00002199 7E 5F                           	JLE	L657
  3359 0000219B C7 45 F0 00001000               	MOV	DWORD [-16+EBP],4096
  3360 000021A2 8B 4D 10                        	MOV	ECX,DWORD [16+EBP]
  3361 000021A5 29 55 F0                        	SUB	DWORD [-16+EBP],EDX
  3362 000021A8 8B 39                           	MOV	EDI,DWORD [ECX]
  3363 000021AA FC                              	CLD
  3364 000021AB 01 D7                           	ADD	EDI,EDX
  3365 000021AD 8B 4D F0                        	MOV	ECX,DWORD [-16+EBP]
  3366 000021B0 F3                              	REP
  3367 000021B1 A4                              	MOVSB
  3368 000021B2 68 00103E00                     	PUSH	1064448
  3369 000021B7 FF 75 14                        	PUSH	DWORD [20+EBP]
  3370 000021BA 68 00001000                     	PUSH	4096
  3371 000021BF FF 75 10                        	PUSH	DWORD [16+EBP]
  3372 000021C2 E8 [00000000]                   	CALL	_file_savefile
  3373 000021C7 83 C4 10                        	ADD	ESP,16
  3374 000021CA 8B 55 10                        	MOV	EDX,DWORD [16+EBP]
  3375 000021CD 8B 4D F0                        	MOV	ECX,DWORD [-16+EBP]
  3376 000021D0 2B 5D F0                        	SUB	EBX,DWORD [-16+EBP]
  3377 000021D3 01 4A 0C                        	ADD	DWORD [12+EDX],ECX
  3378 000021D6 8B 4D 10                        	MOV	ECX,DWORD [16+EBP]
  3379 000021D9 89 C2                           	MOV	EDX,EAX
  3380 000021DB 2B 51 10                        	SUB	EDX,DWORD [16+ECX]
  3381 000021DE C7 41 10 00000000               	MOV	DWORD [16+ECX],0
  3382 000021E5 01 55 EC                        	ADD	DWORD [-20+EBP],EDX
  3383 000021E8 3D 00001000                     	CMP	EAX,4096
  3384 000021ED 74 9C                           	JE	L655
  3385 000021EF                                 L651:
  3386 000021EF 8B 45 EC                        	MOV	EAX,DWORD [-20+EBP]
  3387 000021F2 8D 65 F4                        	LEA	ESP,DWORD [-12+EBP]
  3388 000021F5 5B                              	POP	EBX
  3389 000021F6 5E                              	POP	ESI
  3390 000021F7 5F                              	POP	EDI
  3391 000021F8 5D                              	POP	EBP
  3392 000021F9 C3                              	RET
  3393 000021FA                                 L657:
  3394 000021FA 8B 4D 10                        	MOV	ECX,DWORD [16+EBP]
  3395 000021FD FC                              	CLD
  3396 000021FE 8B 39                           	MOV	EDI,DWORD [ECX]
  3397 00002200 89 D9                           	MOV	ECX,EBX
  3398 00002202 01 D7                           	ADD	EDI,EDX
  3399 00002204 F3                              	REP
  3400 00002205 A4                              	MOVSB
  3401 00002206 8B 45 10                        	MOV	EAX,DWORD [16+EBP]
  3402 00002209 01 5D EC                        	ADD	DWORD [-20+EBP],EBX
  3403 0000220C 01 58 0C                        	ADD	DWORD [12+EAX],EBX
  3404 0000220F 01 58 10                        	ADD	DWORD [16+EAX],EBX
  3405 00002212 EB DB                           	JMP	L651
  3406 00002214                                 	GLOBAL	_hrb_api_remove
  3407 00002214                                 _hrb_api_remove:
  3408 00002214 55                              	PUSH	EBP
  3409 00002215 89 E5                           	MOV	EBP,ESP
  3410 00002217 56                              	PUSH	ESI
  3411 00002218 53                              	PUSH	EBX
  3412 00002219 8B 75 0C                        	MOV	ESI,DWORD [12+EBP]
  3413 0000221C 56                              	PUSH	ESI
  3414 0000221D 68 000000E0                     	PUSH	224
  3415 00002222 68 00102600                     	PUSH	1058304
  3416 00002227 FF 75 08                        	PUSH	DWORD [8+EBP]
  3417 0000222A E8 [00000000]                   	CALL	_file_search2
  3418 0000222F 83 C4 10                        	ADD	ESP,16
  3419 00002232 89 C3                           	MOV	EBX,EAX
  3420 00002234 85 C0                           	TEST	EAX,EAX
  3421 00002236 74 06                           	JE	L660
  3422 00002238 F6 40 0B 18                     	TEST	BYTE [11+EAX],24
  3423 0000223C 74 0A                           	JE	L659
  3424 0000223E                                 L660:
  3425 0000223E 83 C8 FF                        	OR	EAX,-1
  3426 00002241                                 L658:
  3427 00002241 8D 65 F8                        	LEA	ESP,DWORD [-8+EBP]
  3428 00002244 5B                              	POP	EBX
  3429 00002245 5E                              	POP	ESI
  3430 00002246 5D                              	POP	EBP
  3431 00002247 C3                              	RET
  3432 00002248                                 L659:
  3433 00002248 0F B7 40 1A                     	MOVZX	EAX,WORD [26+EAX]
  3434 0000224C 50                              	PUSH	EAX
  3435 0000224D 56                              	PUSH	ESI
  3436 0000224E E8 [00000000]                   	CALL	_file_clearfat
  3437 00002253 53                              	PUSH	EBX
  3438 00002254 6A 00                           	PUSH	0
  3439 00002256 E8 [00000000]                   	CALL	_file_move
  3440 0000225B 31 C0                           	XOR	EAX,EAX
  3441 0000225D EB E2                           	JMP	L658
  3442 0000225F                                 	GLOBAL	_t
  3443                                          [SECTION .data]
  3444 0000019C                                 	ALIGNB	4
  3445 0000019C                                 _t:
  3446 0000019C 00 00 00 00 00 00 00            	RESB	7
  3447 000001A3                                 	GLOBAL	_tcons
  3448                                          [SECTION .data]
  3449 000001A3 00                              	ALIGNB	4
  3450 000001A4                                 _tcons:
  3451 000001A4 00 00 00 00                     	RESB	4
  3452 000001A8                                 	GLOBAL	_cons
  3453                                          [SECTION .data]
  3454 000001A8 00 00 00 00 00 00 00 00         	ALIGNB	16
  3455 000001B0                                 _cons:
  3456 000001B0 00 00 00 00 00 00 00 00 00 00   	RESB	20
       000001BA 00 00 00 00 00 00 00 00 00 00 
